clmfit.parameter
Parameters
p0
((lp1
(lp2
S'C_BR00781'
p3
accopy_reg
_reconstructor
p4
(clmfit.parameter
Parameter
p5
c__builtin__
object
p6
Ntp7
Rp8
(g3
cnumpy.core.multiarray
scalar
p9
(cnumpy
dtype
p10
(S'f8'
p11
I0
I1
tp12
Rp13
(I3
S'<'
p14
NNNI-1
I-1
I0
tp15
bS'`\xa9.\xe0e\x86\xea?'
p16
tp17
Rp18
I00
NNNI0
Ng18
tp19
baa(lp20
S'C_BR01562'
p21
ag4
(g5
g6
Ntp22
Rp23
(g21
g9
(g13
S'`\xa9.\xe0e\x86\xfa?'
p24
tp25
Rp26
I00
NNNI0
Ng26
tp27
baa(lp28
S'C_BR03125'
p29
ag4
(g5
g6
Ntp30
Rp31
(g29
g9
(g13
S'fffff\x86\n@'
p32
tp33
Rp34
I00
NNNI0
Ng34
tp35
baa(lp36
S'C_BR06250'
p37
ag4
(g5
g6
Ntp38
Rp39
(g37
g9
(g13
S'fffff\x86\x1a@'
p40
tp41
Rp42
I00
NNNI0
Ng42
tp43
baa(lp44
S'D'
p45
ag4
(g5
g6
Ntp46
Rp47
(g45
g9
(g13
S'\\\x8f\xc2\xf5(0z@'
p48
tp49
Rp50
I00
NNNI0
Ng50
tp51
baa(lp52
S'wxy'
p53
ag4
(g5
g6
Ntp54
Rp55
(g53
g9
(g13
S'q\xe9\xd3\xf4\x8d\x9c\xd3?'
p56
tp57
Rp58
I01
NF-inf
Finf
g9
(g13
S'\xaa\xab\x0c\rn\xbdP?'
p59
tp60
Rp61
(dp62
S'wz'
p63
g9
(g13
S'\x7f9\x1b\x02\x80\xdb\xec\xbf'
p64
tp65
Rp66
sF0.25
tp67
baa(lp68
g63
ag4
(g5
g6
Ntp69
Rp70
(g63
g9
(g13
S'\xe1Br}\x9f\x04\x07@'
p71
tp72
Rp73
I01
NF-inf
Finf
g9
(g13
S'\x18x\xba\x8e\x92\xdd\x87?'
p74
tp75
Rp76
(dp77
g53
g9
(g13
S'\x7f9\x1b\x02\x80\xdb\xec\xbf'
p78
tp79
Rp80
sF0.4
tp81
baatp82
Rp83
.clmfit.parameter
Parameters
p0
((lp1
(lp2
S'C_BR00781'
p3
accopy_reg
_reconstructor
p4
(clmfit.parameter
Parameter
p5
c__builtin__
object
p6
Ntp7
Rp8
(g3
cnumpy.core.multiarray
scalar
p9
(cnumpy
dtype
p10
(S'f8'
p11
I0
I1
tp12
Rp13
(I3
S'<'
p14
NNNI-1
I-1
I0
tp15
bS'`\xa9.\xe0e\x86\xea?'
p16
tp17
Rp18
I00
NNNI0
Ng18
tp19
baa(lp20
S'C_BR01562'
p21
ag4
(g5
g6
Ntp22
Rp23
(g21
g9
(g13
S'`\xa9.\xe0e\x86\xfa?'
p24
tp25
Rp26
I00
NNNI0
Ng26
tp27
baa(lp28
S'C_BR03125'
p29
ag4
(g5
g6
Ntp30
Rp31
(g29
g9
(g13
S'fffff\x86\n@'
p32
tp33
Rp34
I00
NNNI0
Ng34
tp35
baa(lp36
S'C_BR06250'
p37
ag4
(g5
g6
Ntp38
Rp39
(g37
g9
(g13
S'fffff\x86\x1a@'
p40
tp41
Rp42
I00
NNNI0
Ng42
tp43
baa(lp44
S'D'
p45
ag4
(g5
g6
Ntp46
Rp47
(g45
g9
(g13
S'\\\x8f\xc2\xf5(0z@'
p48
tp49
Rp50
I00
NNNI0
Ng50
tp51
baa(lp52
S'wxy'
p53
ag4
(g5
g6
Ntp54
Rp55
(g53
g9
(g13
S'\xee\xc8\xfe\xaf\x0fo\xd4?'
p56
tp57
Rp58
I01
NF-inf
Finf
g9
(g13
S'\xae\xa9\xcc\xee\xf9MY?'
p59
tp60
Rp61
(dp62
S'tf'
p63
g9
(g13
S'\xcf\xe1\x93R`\xc2\xe3?'
p64
tp65
Rp66
sS'wz'
p67
g9
(g13
S'v\xb4b\xe6\xb98\xed\xbf'
p68
tp69
Rp70
sS'F'
p71
g9
(g13
S'\xb8\xa9&Y~\x15\xda?'
p72
tp73
Rp74
sg9
(g13
S'q\xe9\xd3\xf4\x8d\x9c\xd3?'
p75
tp76
Rp77
tp78
baa(lp79
g67
ag4
(g5
g6
Ntp80
Rp81
(g67
g9
(g13
S'\xd8\x9c\xa8\xe0\x86T\x06@'
p82
tp83
Rp84
I01
NF-inf
Finf
g9
(g13
S'\xf2\xb0?\xcc,0\x89?'
p85
tp86
Rp87
(dp88
g63
g9
(g13
S'`\r\xa7g\xc3\xde\xdb\xbf'
p89
tp90
Rp91
sg53
g9
(g13
S'v\xb4b\xe6\xb98\xed\xbf'
p92
tp93
Rp94
sg71
g9
(g13
S'1Lf\xee\x10\x12\xd6\xbf'
p95
tp96
Rp97
sg9
(g13
S'\xe1Br}\x9f\x04\x07@'
p98
tp99
Rp100
tp101
baa(lp102
g71
ag4
(g5
g6
Ntp103
Rp104
(g71
g9
(g13
S'\xc2\t\xc61\n\x9d\xc1?'
p105
tp106
Rp107
I01
NF-inf
Finf
g9
(g13
S'\r\x0e:\x1f\xcd\xec\x7f?'
p108
tp109
Rp110
(dp111
g63
g9
(g13
S'}?\x0c)\x8e\x91\xc8\xbf'
p112
tp113
Rp114
sg53
g9
(g13
S'\xb8\xa9&Y~\x15\xda?'
p115
tp116
Rp117
sg67
g9
(g13
S'2Lf\xee\x10\x12\xd6\xbf'
p118
tp119
Rp120
sF0.1
tp121
baa(lp122
g63
ag4
(g5
g6
Ntp123
Rp124
(g63
g9
(g13
S'\toCEz\x1b\xda>'
p125
tp126
Rp127
I01
NF-inf
Finf
g9
(g13
S'\x0fLh\xfb\xc97\xaa>'
p128
tp129
Rp130
(dp131
g71
g9
(g13
S'|?\x0c)\x8e\x91\xc8\xbf'
p132
tp133
Rp134
sg53
g9
(g13
S'\xd1\xe1\x93R`\xc2\xe3?'
p135
tp136
Rp137
sg67
g9
(g13
S'b\r\xa7g\xc3\xde\xdb\xbf'
p138
tp139
Rp140
sF1e-06
tp141
baatp142
Rp143
.clmfit.parameter
Parameters
p0
((lp1
(lp2
S'C_BR00781'
p3
accopy_reg
_reconstructor
p4
(clmfit.parameter
Parameter
p5
c__builtin__
object
p6
Ntp7
Rp8
(g3
cnumpy.core.multiarray
scalar
p9
(cnumpy
dtype
p10
(S'f8'
p11
I0
I1
tp12
Rp13
(I3
S'<'
p14
NNNI-1
I-1
I0
tp15
bS'\x00\x00\x00\x00\x00\x00\xea?'
p16
tp17
Rp18
I00
NNNI0
Ng18
tp19
baa(lp20
S'C_BR01562'
p21
ag4
(g5
g6
Ntp22
Rp23
(g21
g9
(g13
S'\x00\x00\x00\x00\x00\x00\xfa?'
p24
tp25
Rp26
I00
NNNI0
Ng26
tp27
baa(lp28
S'C_BR03125'
p29
ag4
(g5
g6
Ntp30
Rp31
(g29
g9
(g13
S'\x00\x00\x00\x00\x00\x00\n@'
p32
tp33
Rp34
I00
NNNI0
Ng34
tp35
baa(lp36
S'D'
p37
ag4
(g5
g6
Ntp38
Rp39
(g37
g9
(g13
S'33333\x0by@'
p40
tp41
Rp42
I00
NNNI0
Ng42
tp43
baa(lp44
S'wxy'
p45
ag4
(g5
g6
Ntp46
Rp47
(g45
g9
(g13
S'/\xe2\r\xad\x99\xce\xd9?'
p48
tp49
Rp50
I01
NF-inf
Finf
g9
(g13
S'T<\xd8Dx\xdb`?'
p51
tp52
Rp53
(dp54
S'wz'
p55
g9
(g13
S'R-\xada\xf0d\xed\xbf'
p56
tp57
Rp58
sF0.25
tp59
baa(lp60
g55
ag4
(g5
g6
Ntp61
Rp62
(g55
g9
(g13
S'\x03\xcb\xb4,X\x17\x0b@'
p63
tp64
Rp65
I01
NF-inf
Finf
g9
(g13
S'\xb6\x14\x8d\x9c\x9b\xa5\x96?'
p66
tp67
Rp68
(dp69
g45
g9
(g13
S'R-\xada\xf0d\xed\xbf'
p70
tp71
Rp72
sF0.4
tp73
baatp74
Rp75
.clmfit.parameter
Parameters
p0
((lp1
(lp2
S'C_BR00781'
p3
accopy_reg
_reconstructor
p4
(clmfit.parameter
Parameter
p5
c__builtin__
object
p6
Ntp7
Rp8
(g3
cnumpy.core.multiarray
scalar
p9
(cnumpy
dtype
p10
(S'f8'
p11
I0
I1
tp12
Rp13
(I3
S'<'
p14
NNNI-1
I-1
I0
tp15
bS'\x00\x00\x00\x00\x00\x00\xea?'
p16
tp17
Rp18
I00
NNNI0
Ng18
tp19
baa(lp20
S'C_BR01562'
p21
ag4
(g5
g6
Ntp22
Rp23
(g21
g9
(g13
S'\x00\x00\x00\x00\x00\x00\xfa?'
p24
tp25
Rp26
I00
NNNI0
Ng26
tp27
baa(lp28
S'C_BR03125'
p29
ag4
(g5
g6
Ntp30
Rp31
(g29
g9
(g13
S'\x00\x00\x00\x00\x00\x00\n@'
p32
tp33
Rp34
I00
NNNI0
Ng34
tp35
baa(lp36
S'D'
p37
ag4
(g5
g6
Ntp38
Rp39
(g37
g9
(g13
S'33333\x0by@'
p40
tp41
Rp42
I00
NNNI0
Ng42
tp43
baa(lp44
S'wxy'
p45
ag4
(g5
g6
Ntp46
Rp47
(g45
g9
(g13
S"t'l\x01\xa6\xd7\xd9?"
p48
tp49
Rp50
I01
NF-inf
Finf
g9
(g13
S'Q\xb4\xba\xe8\xcb\x18b?'
p51
tp52
Rp53
(dp54
S'tf'
p55
g9
(g13
S'\xe36~q\xf1;\xd0?'
p56
tp57
Rp58
sS'wz'
p59
g9
(g13
S'\xb0\xf5\xff\x0b\x1bm\xed\xbf'
p60
tp61
Rp62
sS'F'
p63
g9
(g13
S'\xcejw\x85\xa7\xf6q?'
p64
tp65
Rp66
sg9
(g13
S'/\xe2\r\xad\x99\xce\xd9?'
p67
tp68
Rp69
tp70
baa(lp71
g59
ag4
(g5
g6
Ntp72
Rp73
(g59
g9
(g13
S'%\xb9Q\xea9\x0f\x0b@'
p74
tp75
Rp76
I01
NF-inf
Finf
g9
(g13
S';\xa3=-\xcea\x97?'
p77
tp78
Rp79
(dp80
g55
g9
(g13
S'\xacI\xfd9\xb9+\xc6\xbf'
p81
tp82
Rp83
sg45
g9
(g13
S'\xaf\xf5\xff\x0b\x1bm\xed\xbf'
p84
tp85
Rp86
sg63
g9
(g13
S'\x7fj\xe1\x0f-\x88u\xbf'
p87
tp88
Rp89
sg9
(g13
S'\x03\xcb\xb4,X\x17\x0b@'
p90
tp91
Rp92
tp93
baa(lp94
g63
ag4
(g5
g6
Ntp95
Rp96
(g63
g9
(g13
S')\xd9\xb1;`\xb9\xa0?'
p97
tp98
Rp99
I01
NF-inf
Finf
g9
(g13
S'g\xd3R\xd1\x8e\xb5\xa6?'
p100
tp101
Rp102
(dp103
g55
g9
(g13
S'\xfe\xb0\xd2\x1f!X\xe6\xbf'
p104
tp105
Rp106
sg45
g9
(g13
S'Wew\x85\xa7\xf6q?'
p107
tp108
Rp109
sg59
g9
(g13
S'\x9ee\xe1\x0f-\x88u\xbf'
p110
tp111
Rp112
sF0.1
tp113
baa(lp114
g55
ag4
(g5
g6
Ntp115
Rp116
(g55
g9
(g13
S'/\xd9\xddVIH\xb2>'
p117
tp118
Rp119
I01
NF-inf
Finf
g9
(g13
S'\x12\x9f\xdb\xb4\x7f\xb7\xc2>'
p120
tp121
Rp122
(dp123
g63
g9
(g13
S'\xfd\xb0\xd2\x1f!X\xe6\xbf'
p124
tp125
Rp126
sg45
g9
(g13
S'\x137~q\xf1;\xd0?'
p127
tp128
Rp129
sg59
g9
(g13
S'\x12J\xfd9\xb9+\xc6\xbf'
p130
tp131
Rp132
sF1e-06
tp133
baatp134
Rp135
.