clmfit.parameter
Parameters
p0
((lp1
(lp2
S'C_BR00781'
p3
accopy_reg
_reconstructor
p4
(clmfit.parameter
Parameter
p5
c__builtin__
object
p6
Ntp7
Rp8
(g3
cnumpy.core.multiarray
scalar
p9
(cnumpy
dtype
p10
(S'f8'
p11
I0
I1
tp12
Rp13
(I3
S'<'
p14
NNNI-1
I-1
I0
tp15
bS'`\xa9.\xe0e\x86\xea?'
p16
tp17
Rp18
I00
NNNI0
Ng18
tp19
baa(lp20
S'C_BR01562'
p21
ag4
(g5
g6
Ntp22
Rp23
(g21
g9
(g13
S'`\xa9.\xe0e\x86\xfa?'
p24
tp25
Rp26
I00
NNNI0
Ng26
tp27
baa(lp28
S'C_BR03125'
p29
ag4
(g5
g6
Ntp30
Rp31
(g29
g9
(g13
S'fffff\x86\n@'
p32
tp33
Rp34
I00
NNNI0
Ng34
tp35
baa(lp36
S'C_BR06250'
p37
ag4
(g5
g6
Ntp38
Rp39
(g37
g9
(g13
S'fffff\x86\x1a@'
p40
tp41
Rp42
I00
NNNI0
Ng42
tp43
baa(lp44
S'D'
p45
ag4
(g5
g6
Ntp46
Rp47
(g45
g9
(g13
S'\\\x8f\xc2\xf5(0z@'
p48
tp49
Rp50
I00
NNNI0
Ng50
tp51
baa(lp52
S'wxy'
p53
ag4
(g5
g6
Ntp54
Rp55
(g53
g9
(g13
S'<\x19\xf3\xf2\x8d\x9c\xd3?'
p56
tp57
Rp58
I01
NF-inf
Finf
g9
(g13
S'$\xd8\x92\rn\xbdP?'
p59
tp60
Rp61
(dp62
S'wz'
p63
g9
(g13
S'\xd2\xa7\x05\x00\x80\xdb\xec\xbf'
p64
tp65
Rp66
sF0.25
tp67
baa(lp68
g63
ag4
(g5
g6
Ntp69
Rp70
(g63
g9
(g13
S'G\xa9h\x80\x9f\x04\x07@'
p71
tp72
Rp73
I01
NF-inf
Finf
g9
(g13
S'\xac^?\x8d\x92\xdd\x87?'
p74
tp75
Rp76
(dp77
g53
g9
(g13
S'\xd2\xa7\x05\x00\x80\xdb\xec\xbf'
p78
tp79
Rp80
sF0.4
tp81
baatp82
Rp83
.clmfit.parameter
Parameters
p0
((lp1
(lp2
S'C_BR00781'
p3
accopy_reg
_reconstructor
p4
(clmfit.parameter
Parameter
p5
c__builtin__
object
p6
Ntp7
Rp8
(g3
cnumpy.core.multiarray
scalar
p9
(cnumpy
dtype
p10
(S'f8'
p11
I0
I1
tp12
Rp13
(I3
S'<'
p14
NNNI-1
I-1
I0
tp15
bS'`\xa9.\xe0e\x86\xea?'
p16
tp17
Rp18
I00
NNNI0
Ng18
tp19
baa(lp20
S'C_BR01562'
p21
ag4
(g5
g6
Ntp22
Rp23
(g21
g9
(g13
S'`\xa9.\xe0e\x86\xfa?'
p24
tp25
Rp26
I00
NNNI0
Ng26
tp27
baa(lp28
S'C_BR03125'
p29
ag4
(g5
g6
Ntp30
Rp31
(g29
g9
(g13
S'fffff\x86\n@'
p32
tp33
Rp34
I00
NNNI0
Ng34
tp35
baa(lp36
S'C_BR06250'
p37
ag4
(g5
g6
Ntp38
Rp39
(g37
g9
(g13
S'fffff\x86\x1a@'
p40
tp41
Rp42
I00
NNNI0
Ng42
tp43
baa(lp44
S'D'
p45
ag4
(g5
g6
Ntp46
Rp47
(g45
g9
(g13
S'\\\x8f\xc2\xf5(0z@'
p48
tp49
Rp50
I00
NNNI0
Ng50
tp51
baa(lp52
S'wxy'
p53
ag4
(g5
g6
Ntp54
Rp55
(g53
g9
(g13
S'\xa4\xbb\xb3\xa3\x0fo\xd4?'
p56
tp57
Rp58
I01
NF-inf
Finf
g9
(g13
S'\\\xc9e,\xfaMY?'
p59
tp60
Rp61
(dp62
S'tf'
p63
g9
(g13
S'=\x98D\xbd`\xc2\xe3?'
p64
tp65
Rp66
sS'wz'
p67
g9
(g13
S'\t\x98\xb5\xdf\xb98\xed\xbf'
p68
tp69
Rp70
sS'F'
p71
g9
(g13
S'\xe9\xf74\x82~\x15\xda?'
p72
tp73
Rp74
sg9
(g13
S'<\x19\xf3\xf2\x8d\x9c\xd3?'
p75
tp76
Rp77
tp78
baa(lp79
g67
ag4
(g5
g6
Ntp80
Rp81
(g67
g9
(g13
S'\x91N\\\xea\x86T\x06@'
p82
tp83
Rp84
I01
NF-inf
Finf
g9
(g13
S'\x96?\x9f\xdf,0\x89?'
p85
tp86
Rp87
(dp88
g63
g9
(g13
S'Ce@\x10\xc4\xde\xdb\xbf'
p89
tp90
Rp91
sg53
g9
(g13
S'\x04\x98\xb5\xdf\xb98\xed\xbf'
p92
tp93
Rp94
sg71
g9
(g13
S'%\xc1\xaa\xee\x10\x12\xd6\xbf'
p95
tp96
Rp97
sg9
(g13
S'G\xa9h\x80\x9f\x04\x07@'
p98
tp99
Rp100
tp101
baa(lp102
g71
ag4
(g5
g6
Ntp103
Rp104
(g71
g9
(g13
S'\xee\xf1"\xf6\t\x9d\xc1?'
p105
tp106
Rp107
I01
NF-inf
Finf
g9
(g13
S'\x1c}\xc7A\xcd\xec\x7f?'
p108
tp109
Rp110
(dp111
g63
g9
(g13
S'\xa6\x8c\xdf\xad\x8b\x91\xc8\xbf'
p112
tp113
Rp114
sg53
g9
(g13
S'\xe2\xf74\x82~\x15\xda?'
p115
tp116
Rp117
sg67
g9
(g13
S'\x1e\xc1\xaa\xee\x10\x12\xd6\xbf'
p118
tp119
Rp120
sF0.1
tp121
baa(lp122
g63
ag4
(g5
g6
Ntp123
Rp124
(g63
g9
(g13
S'\xf4l\xde\xd7x\x1b\xda>'
p125
tp126
Rp127
I01
NF-inf
Finf
g9
(g13
S'\xec\x0by\x8a\xc97\xaa>'
p128
tp129
Rp130
(dp131
g71
g9
(g13
S'\x9c\x8c\xdf\xad\x8b\x91\xc8\xbf'
p132
tp133
Rp134
sg53
g9
(g13
S'A\x98D\xbd`\xc2\xe3?'
p135
tp136
Rp137
sg67
g9
(g13
S'Ve@\x10\xc4\xde\xdb\xbf'
p138
tp139
Rp140
sF1e-06
tp141
baatp142
Rp143
.clmfit.parameter
Parameters
p0
((lp1
(lp2
S'C_BR00781'
p3
accopy_reg
_reconstructor
p4
(clmfit.parameter
Parameter
p5
c__builtin__
object
p6
Ntp7
Rp8
(g3
cnumpy.core.multiarray
scalar
p9
(cnumpy
dtype
p10
(S'f8'
p11
I0
I1
tp12
Rp13
(I3
S'<'
p14
NNNI-1
I-1
I0
tp15
bS'`\xa9.\xe0e\x86\xea?'
p16
tp17
Rp18
I00
NNNI0
Ng18
tp19
baa(lp20
S'C_BR01562'
p21
ag4
(g5
g6
Ntp22
Rp23
(g21
g9
(g13
S'`\xa9.\xe0e\x86\xfa?'
p24
tp25
Rp26
I00
NNNI0
Ng26
tp27
baa(lp28
S'C_BR03125'
p29
ag4
(g5
g6
Ntp30
Rp31
(g29
g9
(g13
S'fffff\x86\n@'
p32
tp33
Rp34
I00
NNNI0
Ng34
tp35
baa(lp36
S'C_BR06250'
p37
ag4
(g5
g6
Ntp38
Rp39
(g37
g9
(g13
S'fffff\x86\x1a@'
p40
tp41
Rp42
I00
NNNI0
Ng42
tp43
baa(lp44
S'D'
p45
ag4
(g5
g6
Ntp46
Rp47
(g45
g9
(g13
S'\\\x8f\xc2\xf5(0z@'
p48
tp49
Rp50
I00
NNNI0
Ng50
tp51
baa(lp52
S'w0'
p53
ag4
(g5
g6
Ntp54
Rp55
(g53
g9
(g13
S'z(\x89"9A\xd1?'
p56
tp57
Rp58
I01
NF-inf
Finf
g9
(g13
S'\xff\xd8*\x98\xc9\xf9]?'
p59
tp60
Rp61
(dp62
S'r0'
p63
g9
(g13
S'\xd5\xee%\xbf\x81J\xec\xbf'
p64
tp65
Rp66
sg9
(g13
S'\xe3\xde\x94\xb8\xef4\xd1?'
p67
tp68
Rp69
tp70
baa(lp71
S'a'
p72
ag4
(g5
g6
Ntp73
Rp74
(g72
g9
(g13
S'Nb\x10X9\xb4\xe0?'
p75
tp76
Rp77
I00
NNNI0
Ng77
tp78
baa(lp79
g63
ag4
(g5
g6
Ntp80
Rp81
(g63
g9
(g13
S'\x0e\xa18\xe8\xf2\xc6\xbf?'
p82
tp83
Rp84
I01
NF-inf
Finf
g9
(g13
S'\x96\n\xdb\x89\xc9\xdd9?'
p85
tp86
Rp87
(dp88
g53
g9
(g13
S'\xd3\xee%\xbf\x81J\xec\xbf'
p89
tp90
Rp91
sg9
(g13
S'\xd8\xbb\xf2\x8b\x1b\xc3\xbf?'
p92
tp93
Rp94
tp95
baa(lp96
S'lambdaex'
p97
ag4
(g5
g6
Ntp98
Rp99
(g97
g9
(g13
S'\x08\xac\x1cZd;\xdf?'
p100
tp101
Rp102
I00
NNNI0
Ng102
tp103
baa(lp104
S'lambdaem'
p105
ag4
(g5
g6
Ntp106
Rp107
(g105
g9
(g13
S'\xcf\xf7S\xe3\xa5\x9b\xe0?'
p108
tp109
Rp110
I00
NNNI0
Ng110
tp111
baa(lp112
S'n'
p113
ag4
(g5
g6
Ntp114
Rp115
(g113
g9
(g13
S'H\xe1z\x14\xaeG\xf5?'
p116
tp117
Rp118
I00
NNNI0
Ng118
tp119
baatp120
Rp121
.clmfit.parameter
Parameters
p0
((lp1
(lp2
S'C_BR00781'
p3
accopy_reg
_reconstructor
p4
(clmfit.parameter
Parameter
p5
c__builtin__
object
p6
Ntp7
Rp8
(g3
cnumpy.core.multiarray
scalar
p9
(cnumpy
dtype
p10
(S'f8'
p11
I0
I1
tp12
Rp13
(I3
S'<'
p14
NNNI-1
I-1
I0
tp15
bS'`\xa9.\xe0e\x86\xea?'
p16
tp17
Rp18
I00
NNNI0
Ng18
tp19
baa(lp20
S'C_BR01562'
p21
ag4
(g5
g6
Ntp22
Rp23
(g21
g9
(g13
S'`\xa9.\xe0e\x86\xfa?'
p24
tp25
Rp26
I00
NNNI0
Ng26
tp27
baa(lp28
S'C_BR03125'
p29
ag4
(g5
g6
Ntp30
Rp31
(g29
g9
(g13
S'fffff\x86\n@'
p32
tp33
Rp34
I00
NNNI0
Ng34
tp35
baa(lp36
S'C_BR06250'
p37
ag4
(g5
g6
Ntp38
Rp39
(g37
g9
(g13
S'fffff\x86\x1a@'
p40
tp41
Rp42
I00
NNNI0
Ng42
tp43
baa(lp44
S'D'
p45
ag4
(g5
g6
Ntp46
Rp47
(g45
g9
(g13
S'\\\x8f\xc2\xf5(0z@'
p48
tp49
Rp50
I00
NNNI0
Ng50
tp51
baa(lp52
S'w0'
p53
ag4
(g5
g6
Ntp54
Rp55
(g53
g9
(g13
S'<V\xdb\xbf\x18^\xd3?'
p56
tp57
Rp58
I01
NF-inf
Finf
g9
(g13
S'Je\x03\xe1\xa7Ko?'
p59
tp60
Rp61
(dp62
S'tf'
p63
g9
(g13
S'U/^\xe9\x1d\xab\xe6?'
p64
tp65
Rp66
sS'r0'
p67
g9
(g13
S'\xc5\xa5~\x1b\x12w\xed\xbf'
p68
tp69
Rp70
sS'F'
p71
g9
(g13
S'a\x94\xfb\x95\xf2\x8d\xe7?'
p72
tp73
Rp74
sg9
(g13
S'\xe2r\x84\xcaB\xce\xd3?'
p75
tp76
Rp77
tp78
baa(lp79
S'a'
p80
ag4
(g5
g6
Ntp81
Rp82
(g80
g9
(g13
S'Nb\x10X9\xb4\xe0?'
p83
tp84
Rp85
I00
NNNI0
Ng85
tp86
baa(lp87
g67
ag4
(g5
g6
Ntp88
Rp89
(g67
g9
(g13
S'\xb1\xd4\xaf\x9b\xc8\xb1\xbe?'
p90
tp91
Rp92
I01
NF-inf
Finf
g9
(g13
S'\xf3\xeb\xa5F\x13`C?'
p93
tp94
Rp95
(dp96
g63
g9
(g13
S'tR\xb8~\x13c\xe0\xbf'
p97
tp98
Rp99
sg71
g9
(g13
S'^B\xde\xfd\xa1V\xe4\xbf'
p100
tp101
Rp102
sg53
g9
(g13
S'\xc1\xa5~\x1b\x12w\xed\xbf'
p103
tp104
Rp105
sg9
(g13
S'\x84\x82aY\xe7y\xbe?'
p106
tp107
Rp108
tp109
baa(lp110
S'lambdaex'
p111
ag4
(g5
g6
Ntp112
Rp113
(g111
g9
(g13
S'\x08\xac\x1cZd;\xdf?'
p114
tp115
Rp116
I00
NNNI0
Ng116
tp117
baa(lp118
S'lambdaem'
p119
ag4
(g5
g6
Ntp120
Rp121
(g119
g9
(g13
S'\xcf\xf7S\xe3\xa5\x9b\xe0?'
p122
tp123
Rp124
I00
NNNI0
Ng124
tp125
baa(lp126
S'n'
p127
ag4
(g5
g6
Ntp128
Rp129
(g127
g9
(g13
S'H\xe1z\x14\xaeG\xf5?'
p130
tp131
Rp132
I00
NNNI0
Ng132
tp133
baa(lp134
g71
ag4
(g5
g6
Ntp135
Rp136
(g71
g9
(g13
S'\xf0;h\xba\x8b\x87\xc3?'
p137
tp138
Rp139
I01
NF-inf
Finf
g9
(g13
S'$\xd9\x1a\xcb\x1fI\x83?'
p140
tp141
Rp142
(dp143
g63
g9
(g13
S'\x879`W\xbcx\xd1?'
p144
tp145
Rp146
sg67
g9
(g13
S'`B\xde\xfd\xa1V\xe4\xbf'
p147
tp148
Rp149
sg53
g9
(g13
S'a\x94\xfb\x95\xf2\x8d\xe7?'
p150
tp151
Rp152
sg9
(g13
S'\xec\xad\xc7J\x1b\x99\xc5?'
p153
tp154
Rp155
tp156
baa(lp157
g63
ag4
(g5
g6
Ntp158
Rp159
(g63
g9
(g13
S'\xcaaG\x91P\x01\xe5>'
p160
tp161
Rp162
I01
NF-inf
Finf
g9
(g13
S'n\x9d\x9dL\xcf\x11\xb5>'
p163
tp164
Rp165
(dp166
g71
g9
(g13
S'\x919`W\xbcx\xd1?'
p167
tp168
Rp169
sg67
g9
(g13
S'wR\xb8~\x13c\xe0\xbf'
p170
tp171
Rp172
sg53
g9
(g13
S'[/^\xe9\x1d\xab\xe6?'
p173
tp174
Rp175
sg9
(g13
S'\x85m\x0f\xde\x0e\x0c\xeb>'
p176
tp177
Rp178
tp179
baatp180
Rp181
.clmfit.parameter
Parameters
p0
((lp1
(lp2
S'C_BR00781'
p3
accopy_reg
_reconstructor
p4
(clmfit.parameter
Parameter
p5
c__builtin__
object
p6
Ntp7
Rp8
(g3
cnumpy.core.multiarray
scalar
p9
(cnumpy
dtype
p10
(S'f8'
p11
I0
I1
tp12
Rp13
(I3
S'<'
p14
NNNI-1
I-1
I0
tp15
bS'\x00\x00\x00\x00\x00\x00\xea?'
p16
tp17
Rp18
I00
NNNI0
Ng18
tp19
baa(lp20
S'C_BR01562'
p21
ag4
(g5
g6
Ntp22
Rp23
(g21
g9
(g13
S'\x00\x00\x00\x00\x00\x00\xfa?'
p24
tp25
Rp26
I00
NNNI0
Ng26
tp27
baa(lp28
S'C_BR03125'
p29
ag4
(g5
g6
Ntp30
Rp31
(g29
g9
(g13
S'\x00\x00\x00\x00\x00\x00\n@'
p32
tp33
Rp34
I00
NNNI0
Ng34
tp35
baa(lp36
S'D'
p37
ag4
(g5
g6
Ntp38
Rp39
(g37
g9
(g13
S'33333\x0by@'
p40
tp41
Rp42
I00
NNNI0
Ng42
tp43
baa(lp44
S'wxy'
p45
ag4
(g5
g6
Ntp46
Rp47
(g45
g9
(g13
S'_\xe6\xa4\xad\x99\xce\xd9?'
p48
tp49
Rp50
I01
NF-inf
Finf
g9
(g13
S'34\xd9:x\xdb`?'
p51
tp52
Rp53
(dp54
S'wz'
p55
g9
(g13
S'\x81W\x8e_\xf0d\xed\xbf'
p56
tp57
Rp58
sF0.25
tp59
baa(lp60
g55
ag4
(g5
g6
Ntp61
Rp62
(g55
g9
(g13
S'\x7f\xd1\xce+X\x17\x0b@'
p63
tp64
Rp65
I01
NF-inf
Finf
g9
(g13
S'\xf4\xeb\x84\x8e\x9b\xa5\x96?'
p66
tp67
Rp68
(dp69
g45
g9
(g13
S'\x81W\x8e_\xf0d\xed\xbf'
p70
tp71
Rp72
sF0.4
tp73
baatp74
Rp75
.clmfit.parameter
Parameters
p0
((lp1
(lp2
S'C_BR00781'
p3
accopy_reg
_reconstructor
p4
(clmfit.parameter
Parameter
p5
c__builtin__
object
p6
Ntp7
Rp8
(g3
cnumpy.core.multiarray
scalar
p9
(cnumpy
dtype
p10
(S'f8'
p11
I0
I1
tp12
Rp13
(I3
S'<'
p14
NNNI-1
I-1
I0
tp15
bS'\x00\x00\x00\x00\x00\x00\xea?'
p16
tp17
Rp18
I00
NNNI0
Ng18
tp19
baa(lp20
S'C_BR01562'
p21
ag4
(g5
g6
Ntp22
Rp23
(g21
g9
(g13
S'\x00\x00\x00\x00\x00\x00\xfa?'
p24
tp25
Rp26
I00
NNNI0
Ng26
tp27
baa(lp28
S'C_BR03125'
p29
ag4
(g5
g6
Ntp30
Rp31
(g29
g9
(g13
S'\x00\x00\x00\x00\x00\x00\n@'
p32
tp33
Rp34
I00
NNNI0
Ng34
tp35
baa(lp36
S'D'
p37
ag4
(g5
g6
Ntp38
Rp39
(g37
g9
(g13
S'33333\x0by@'
p40
tp41
Rp42
I00
NNNI0
Ng42
tp43
baa(lp44
S'wxy'
p45
ag4
(g5
g6
Ntp46
Rp47
(g45
g9
(g13
S'\xea\xfd]\xfe\xa5\xd7\xd9?'
p48
tp49
Rp50
I01
NF-inf
Finf
g9
(g13
S'\xef\x8e\x06<\xc9\x18b?'
p51
tp52
Rp53
(dp54
S'tf'
p55
g9
(g13
S'\xab\xec\xc6\x81\xe1;\xd0?'
p56
tp57
Rp58
sS'wz'
p59
g9
(g13
S'\x9c\x8eR\xf8\x1am\xed\xbf'
p60
tp61
Rp62
sS'F'
p63
g9
(g13
S'x\x80\xc1\xcd!\xf5q?'
p64
tp65
Rp66
sg9
(g13
S'_\xe6\xa4\xad\x99\xce\xd9?'
p67
tp68
Rp69
tp70
baa(lp71
g59
ag4
(g5
g6
Ntp72
Rp73
(g59
g9
(g13
S'\xc1B\xf6\xeb9\x0f\x0b@'
p74
tp75
Rp76
I01
NF-inf
Finf
g9
(g13
S'\xd4\xe0\xbd\x8c\xcca\x97?'
p77
tp78
Rp79
(dp80
g55
g9
(g13
S'$\x1cE\x01\xa3+\xc6\xbf'
p81
tp82
Rp83
sg45
g9
(g13
S'\x9d\x8eR\xf8\x1am\xed\xbf'
p84
tp85
Rp86
sg63
g9
(g13
S'\xaaS\xdf\xca\x02\x87u\xbf'
p87
tp88
Rp89
sg9
(g13
S'\x7f\xd1\xce+X\x17\x0b@'
p90
tp91
Rp92
tp93
baa(lp94
g63
ag4
(g5
g6
Ntp95
Rp96
(g63
g9
(g13
S'S;dCU\xb9\xa0?'
p97
tp98
Rp99
I01
NF-inf
Finf
g9
(g13
S'N\xf8d\xff\xab\xb5\xa6?'
p100
tp101
Rp102
(dp103
g55
g9
(g13
S"\x06'-\xdf&X\xe6\xbf"
p104
tp105
Rp106
sg45
g9
(g13
S'v\x81\xc1\xcd!\xf5q?'
p107
tp108
Rp109
sg59
g9
(g13
S'HW\xdf\xca\x02\x87u\xbf'
p110
tp111
Rp112
sF0.1
tp113
baa(lp114
g55
ag4
(g5
g6
Ntp115
Rp116
(g55
g9
(g13
S'\xd0\xed\xb7gJH\xb2>'
p117
tp118
Rp119
I01
NF-inf
Finf
g9
(g13
S'[\xca\x86NH\xb7\xc2>'
p120
tp121
Rp122
(dp123
g63
g9
(g13
S"\x06'-\xdf&X\xe6\xbf"
p124
tp125
Rp126
sg45
g9
(g13
S'\x90\xec\xc6\x81\xe1;\xd0?'
p127
tp128
Rp129
sg59
g9
(g13
S'\xfa\x1bE\x01\xa3+\xc6\xbf'
p130
tp131
Rp132
sF1e-06
tp133
baatp134
Rp135
.clmfit.parameter
Parameters
p0
((lp1
(lp2
S'C_BR00781'
p3
accopy_reg
_reconstructor
p4
(clmfit.parameter
Parameter
p5
c__builtin__
object
p6
Ntp7
Rp8
(g3
cnumpy.core.multiarray
scalar
p9
(cnumpy
dtype
p10
(S'f8'
p11
I0
I1
tp12
Rp13
(I3
S'<'
p14
NNNI-1
I-1
I0
tp15
bS'\x00\x00\x00\x00\x00\x00\xea?'
p16
tp17
Rp18
I00
NNNI0
Ng18
tp19
baa(lp20
S'C_BR01562'
p21
ag4
(g5
g6
Ntp22
Rp23
(g21
g9
(g13
S'\x00\x00\x00\x00\x00\x00\xfa?'
p24
tp25
Rp26
I00
NNNI0
Ng26
tp27
baa(lp28
S'C_BR03125'
p29
ag4
(g5
g6
Ntp30
Rp31
(g29
g9
(g13
S'\x00\x00\x00\x00\x00\x00\n@'
p32
tp33
Rp34
I00
NNNI0
Ng34
tp35
baa(lp36
S'D'
p37
ag4
(g5
g6
Ntp38
Rp39
(g37
g9
(g13
S'33333\x0by@'
p40
tp41
Rp42
I00
NNNI0
Ng42
tp43
baa(lp44
S'w0'
p45
ag4
(g5
g6
Ntp46
Rp47
(g45
g9
(g13
S'\xbd\xa6\x91-\xda\xc9\xd7?'
p48
tp49
Rp50
I01
NF-inf
Finf
g9
(g13
S'Cg\x9e[\x03\xc6j?'
p51
tp52
Rp53
(dp54
S'r0'
p55
g9
(g13
S'3\xa1*\nS\x86\xed\xbf'
p56
tp57
Rp58
sg9
(g13
S'\xe7\x82_\x92\xf5\xd3\xd7?'
p59
tp60
Rp61
tp62
baa(lp63
S'a'
p64
ag4
(g5
g6
Ntp65
Rp66
(g64
g9
(g13
S'w\xbe\x9f\x1a/\xdd\xe4?'
p67
tp68
Rp69
I00
NNNI0
Ng69
tp70
baa(lp71
g55
ag4
(g5
g6
Ntp72
Rp73
(g55
g9
(g13
S'\xda\xac\x1b\x01\xc2\t\xc3?'
p74
tp75
Rp76
I01
NF-inf
Finf
g9
(g13
S'\x87Q\x85\x06$%J?'
p77
tp78
Rp79
(dp80
g45
g9
(g13
S'3\xa1*\nS\x86\xed\xbf'
p81
tp82
Rp83
sg9
(g13
S'\xd7@\xbd\xc3$ \xc3?'
p84
tp85
Rp86
tp87
baa(lp88
S'lambdaex'
p89
ag4
(g5
g6
Ntp90
Rp91
(g89
g9
(g13
S'\xa8\xc6K7\x89A\xe4?'
p92
tp93
Rp94
I00
NNNI0
Ng94
tp95
baa(lp96
S'lambdaem'
p97
ag4
(g5
g6
Ntp98
Rp99
(g97
g9
(g13
S'\xa0\x1a/\xdd$\x06\xe5?'
p100
tp101
Rp102
I00
NNNI0
Ng102
tp103
baa(lp104
S'n'
p105
ag4
(g5
g6
Ntp106
Rp107
(g105
g9
(g13
S'H\xe1z\x14\xaeG\xf5?'
p108
tp109
Rp110
I00
NNNI0
Ng110
tp111
baatp112
Rp113
.clmfit.parameter
Parameters
p0
((lp1
(lp2
S'C_BR00781'
p3
accopy_reg
_reconstructor
p4
(clmfit.parameter
Parameter
p5
c__builtin__
object
p6
Ntp7
Rp8
(g3
cnumpy.core.multiarray
scalar
p9
(cnumpy
dtype
p10
(S'f8'
p11
I0
I1
tp12
Rp13
(I3
S'<'
p14
NNNI-1
I-1
I0
tp15
bS'\x00\x00\x00\x00\x00\x00\xea?'
p16
tp17
Rp18
I00
NNNI0
Ng18
tp19
baa(lp20
S'C_BR01562'
p21
ag4
(g5
g6
Ntp22
Rp23
(g21
g9
(g13
S'\x00\x00\x00\x00\x00\x00\xfa?'
p24
tp25
Rp26
I00
NNNI0
Ng26
tp27
baa(lp28
S'C_BR03125'
p29
ag4
(g5
g6
Ntp30
Rp31
(g29
g9
(g13
S'\x00\x00\x00\x00\x00\x00\n@'
p32
tp33
Rp34
I00
NNNI0
Ng34
tp35
baa(lp36
S'D'
p37
ag4
(g5
g6
Ntp38
Rp39
(g37
g9
(g13
S'33333\x0by@'
p40
tp41
Rp42
I00
NNNI0
Ng42
tp43
baa(lp44
S'w0'
p45
ag4
(g5
g6
Ntp46
Rp47
(g45
g9
(g13
S's\x19\xf2\xfb\xbb\xe1\xd7?'
p48
tp49
Rp50
I01
NF-inf
Finf
g9
(g13
S'\x9aYPuu\xf0m?'
p51
tp52
Rp53
(dp54
S'tf'
p55
g9
(g13
S'\x14Rrj\x15j\xd4?'
p56
tp57
Rp58
sS'r0'
p59
g9
(g13
S'\x9b\xbf\x0e\x15\xb9\x92\xed\xbf'
p60
tp61
Rp62
sS'F'
p63
g9
(g13
S':\xc2+\xdb\x9er\x9a?'
p64
tp65
Rp66
sg9
(g13
S'0\xb3\x98\x1cC\xf9\xd7?'
p67
tp68
Rp69
tp70
baa(lp71
S'a'
p72
ag4
(g5
g6
Ntp73
Rp74
(g72
g9
(g13
S'w\xbe\x9f\x1a/\xdd\xe4?'
p75
tp76
Rp77
I00
NNNI0
Ng77
tp78
baa(lp79
g59
ag4
(g5
g6
Ntp80
Rp81
(g59
g9
(g13
S'\x06\xd3\xd13\xf8\x01\xc3?'
p82
tp83
Rp84
I01
NF-inf
Finf
g9
(g13
S'\xea-\x90r\xd5\xa7K?'
p85
tp86
Rp87
(dp88
g55
g9
(g13
S'e\xc3\xedEe\x08\xcc\xbf'
p89
tp90
Rp91
sg63
g9
(g13
S'H\x9a\xbf\x0b\xf4G\x97\xbf'
p92
tp93
Rp94
sg45
g9
(g13
S'\x9d\xbf\x0e\x15\xb9\x92\xed\xbf'
p95
tp96
Rp97
sg9
(g13
S'\x9c\xfe\xfeu\xfb\x13\xc3?'
p98
tp99
Rp100
tp101
baa(lp102
S'lambdaex'
p103
ag4
(g5
g6
Ntp104
Rp105
(g103
g9
(g13
S'\xa8\xc6K7\x89A\xe4?'
p106
tp107
Rp108
I00
NNNI0
Ng108
tp109
baa(lp110
S'lambdaem'
p111
ag4
(g5
g6
Ntp112
Rp113
(g111
g9
(g13
S'\xa0\x1a/\xdd$\x06\xe5?'
p114
tp115
Rp116
I00
NNNI0
Ng116
tp117
baa(lp118
S'n'
p119
ag4
(g5
g6
Ntp120
Rp121
(g119
g9
(g13
S'H\xe1z\x14\xaeG\xf5?'
p122
tp123
Rp124
I00
NNNI0
Ng124
tp125
baa(lp126
g63
ag4
(g5
g6
Ntp127
Rp128
(g63
g9
(g13
S'\x0cr\xdex\x02\x0e\xa2?'
p129
tp130
Rp131
I01
NF-inf
Finf
g9
(g13
S'\x9d7\xc4\xef\xee\xfc\xa1?'
p132
tp133
Rp134
(dp135
g55
g9
(g13
S'\xcdS\x83\xbe\x94\x01\xe5\xbf'
p136
tp137
Rp138
sg59
g9
(g13
S'\x80\x9b\xbf\x0b\xf4G\x97\xbf'
p139
tp140
Rp141
sg45
g9
(g13
S'#\xc3+\xdb\x9er\x9a?'
p142
tp143
Rp144
sg9
(g13
S'\xa8\x01\xacG?\xea\xa2?'
p145
tp146
Rp147
tp148
baa(lp149
g55
ag4
(g5
g6
Ntp150
Rp151
(g55
g9
(g13
S'\xb0\x8c\xea\xd9~\xd4\xba>'
p152
tp153
Rp154
I01
NF-inf
Finf
g9
(g13
S'.\x02G\xeb\xc2E\xc5>'
p155
tp156
Rp157
(dp158
g63
g9
(g13
S'\xceS\x83\xbe\x94\x01\xe5\xbf'
p159
tp160
Rp161
sg59
g9
(g13
S'O\xc3\xedEe\x08\xcc\xbf'
p162
tp163
Rp164
sg45
g9
(g13
S'\xf4Qrj\x15j\xd4?'
p165
tp166
Rp167
sg9
(g13
S'\xe5\xdc\x12\xa4\xafM\xc6>'
p168
tp169
Rp170
tp171
baatp172
Rp173
.