clmfit.parameter
Parameters
p0
((lp1
(lp2
S'C_BR01562'
p3
accopy_reg
_reconstructor
p4
(clmfit.parameter
Parameter
p5
c__builtin__
object
p6
Ntp7
Rp8
(g3
cnumpy.core.multiarray
scalar
p9
(cnumpy
dtype
p10
(S'f8'
p11
I0
I1
tp12
Rp13
(I3
S'<'
p14
NNNI-1
I-1
I0
tp15
bS'333333\xfb?'
p16
tp17
Rp18
I00
NNNI0
Ng18
tp19
baa(lp20
S'C_BR03125'
p21
ag4
(g5
g6
Ntp22
Rp23
(g21
g9
(g13
S'333333\x0b@'
p24
tp25
Rp26
I00
NNNI0
Ng26
tp27
baa(lp28
S'D'
p29
ag4
(g5
g6
Ntp30
Rp31
(g29
g9
(g13
S'fffffVx@'
p32
tp33
Rp34
I00
NNNI0
Ng34
tp35
baa(lp36
S'wxy'
p37
ag4
(g5
g6
Ntp38
Rp39
(g37
g9
(g13
S'S\x9f\xca\xdf|5\xd0?'
p40
tp41
Rp42
I01
NF-inf
Finf
g9
(g13
S'\x8a\xba}\xf4\x1c9]?'
p43
tp44
Rp45
(dp46
S'slope'
p47
g9
(g13
S'vr1\xec\x02\xab\xdd?'
p48
tp49
Rp50
sS'wz'
p51
g9
(g13
S'6\x045\x0c\xcbq\xe0\xbf'
p52
tp53
Rp54
sF0.25
tp55
baa(lp56
g51
ag4
(g5
g6
Ntp57
Rp58
(g51
g9
(g13
S'}rk\xf6c\xde\r@'
p59
tp60
Rp61
I01
NF-inf
Finf
g9
(g13
S'H\x85\x890U\x98\xda?'
p62
tp63
Rp64
(dp65
g47
g9
(g13
S'\xf5\x1fstm\xee\xef\xbf'
p66
tp67
Rp68
sg37
g9
(g13
S'!\x045\x0c\xcbq\xe0\xbf'
p69
tp70
Rp71
sF0.7
tp72
baa(lp73
g47
ag4
(g5
g6
Ntp74
Rp75
(g47
g9
(g13
S'F\t\xec6i\xdd\xf2?'
p76
tp77
Rp78
I01
NF-inf
Finf
g9
(g13
S'=\x8b&\xb5\xe4\n\xc0?'
p79
tp80
Rp81
(dp82
g37
g9
(g13
S'sr1\xec\x02\xab\xdd?'
p83
tp84
Rp85
sg51
g9
(g13
S'\xf5\x1fstm\xee\xef\xbf'
p86
tp87
Rp88
sF1.0
tp89
baatp90
Rp91
.clmfit.parameter
Parameters
p0
((lp1
(lp2
S'C_BR01562'
p3
accopy_reg
_reconstructor
p4
(clmfit.parameter
Parameter
p5
c__builtin__
object
p6
Ntp7
Rp8
(g3
cnumpy.core.multiarray
scalar
p9
(cnumpy
dtype
p10
(S'f8'
p11
I0
I1
tp12
Rp13
(I3
S'<'
p14
NNNI-1
I-1
I0
tp15
bS'333333\xfb?'
p16
tp17
Rp18
I00
NNNI0
Ng18
tp19
baa(lp20
S'C_BR03125'
p21
ag4
(g5
g6
Ntp22
Rp23
(g21
g9
(g13
S'333333\x0b@'
p24
tp25
Rp26
I00
NNNI0
Ng26
tp27
baa(lp28
S'D'
p29
ag4
(g5
g6
Ntp30
Rp31
(g29
g9
(g13
S'fffffVx@'
p32
tp33
Rp34
I00
NNNI0
Ng34
tp35
baa(lp36
S'wxy'
p37
ag4
(g5
g6
Ntp38
Rp39
(g37
g9
(g13
S' \x90\xf0\xc3 \xa5\xd0?'
p40
tp41
Rp42
I01
NF-inf
Finf
g9
(g13
S'\xa8#SN\xda\\h?'
p43
tp44
Rp45
(dp46
S'slope'
p47
g9
(g13
S'+\xd9\x9fPU\x9f\xe0?'
p48
tp49
Rp50
sS'tf'
p51
g9
(g13
S'3j`\x0c@7\xe3?'
p52
tp53
Rp54
sS'wz'
p55
g9
(g13
S'&w\xe3\xc6\x9a\xb2\xe2\xbf'
p56
tp57
Rp58
sS'F'
p59
g9
(g13
S'?\xf9\xbd\x1b0k\xd4?'
p60
tp61
Rp62
sg9
(g13
S'S\x9f\xca\xdf|5\xd0?'
p63
tp64
Rp65
tp66
baa(lp67
g55
ag4
(g5
g6
Ntp68
Rp69
(g55
g9
(g13
S'\xe6M;/\xec\x1f\n@'
p70
tp71
Rp72
I01
NF-inf
Finf
g9
(g13
S'\xc6\xc7@c{\xdc\xd4?'
p73
tp74
Rp75
(dp76
g47
g9
(g13
S'\x9b\x08\xc4\xef\xaf\xe0\xef\xbf'
p77
tp78
Rp79
sg51
g9
(g13
S'\xd2S"\x0bw\x9b\xce\xbf'
p80
tp81
Rp82
sg37
g9
(g13
S'zw\xe3\xc6\x9a\xb2\xe2\xbf'
p83
tp84
Rp85
sg59
g9
(g13
S'\xd1\xb9OS\x8cF\xc5\xbf'
p86
tp87
Rp88
sg9
(g13
S'}rk\xf6c\xde\r@'
p89
tp90
Rp91
tp92
baa(lp93
g47
ag4
(g5
g6
Ntp94
Rp95
(g47
g9
(g13
S'\xa6K\xb4\xc1\xa9\x1d\xf5?'
p96
tp97
Rp98
I01
NF-inf
Finf
g9
(g13
S'\xcaM}\x10#C\xbf?'
p99
tp100
Rp101
(dp102
g51
g9
(g13
S'\xee\xab\xc7e:`\xca?'
p103
tp104
Rp105
sg59
g9
(g13
S'\xb7\x15{\xa2\x00\xaf\xc2?'
p106
tp107
Rp108
sg37
g9
(g13
S'\x91\xd9\x9fPU\x9f\xe0?'
p109
tp110
Rp111
sg55
g9
(g13
S'\xa5\x08\xc4\xef\xaf\xe0\xef\xbf'
p112
tp113
Rp114
sg9
(g13
S'F\t\xec6i\xdd\xf2?'
p115
tp116
Rp117
tp118
baa(lp119
g59
ag4
(g5
g6
Ntp120
Rp121
(g59
g9
(g13
S'\x8a\xa9\xd1\x1b\x94\xa1\xb8?'
p122
tp123
Rp124
I01
NF0.0
F0.5
g9
(g13
S'\x82F\xeba\x94s\x95?'
p125
tp126
Rp127
(dp128
g47
g9
(g13
S'\xb8\x15{\xa2\x00\xaf\xc2?'
p129
tp130
Rp131
sg51
g9
(g13
S'\xe1\xf9\xc1\xfb\xc5\xf0\xd2\xbf'
p132
tp133
Rp134
sg37
g9
(g13
S'Y\xf9\xbd\x1b0k\xd4?'
p135
tp136
Rp137
sg55
g9
(g13
S'\xda\xb9OS\x8cF\xc5\xbf'
p138
tp139
Rp140
sF0.05
tp141
baa(lp142
g51
ag4
(g5
g6
Ntp143
Rp144
(g51
g9
(g13
S'#QL\xfbS\xf9\xd0>'
p145
tp146
Rp147
I01
NF1e-09
F0.0001
g9
(g13
S'\x02\x9d\\\xb6\x84\xea\xbe>'
p148
tp149
Rp150
(dp151
g47
g9
(g13
S'f\xaa\xc7e:`\xca?'
p152
tp153
Rp154
sg59
g9
(g13
S'\xfa\xf9\xc1\xfb\xc5\xf0\xd2\xbf'
p155
tp156
Rp157
sg37
g9
(g13
S'Nj`\x0c@7\xe3?'
p158
tp159
Rp160
sg55
g9
(g13
S'\xb7R"\x0bw\x9b\xce\xbf'
p161
tp162
Rp163
sF1e-06
tp164
baatp165
Rp166
.clmfit.parameter
Parameters
p0
((lp1
(lp2
S'C_BR01562'
p3
accopy_reg
_reconstructor
p4
(clmfit.parameter
Parameter
p5
c__builtin__
object
p6
Ntp7
Rp8
(g3
cnumpy.core.multiarray
scalar
p9
(cnumpy
dtype
p10
(S'f8'
p11
I0
I1
tp12
Rp13
(I3
S'<'
p14
NNNI-1
I-1
I0
tp15
bS'333333\xfb?'
p16
tp17
Rp18
I00
NNNI0
Ng18
tp19
baa(lp20
S'C_BR03125'
p21
ag4
(g5
g6
Ntp22
Rp23
(g21
g9
(g13
S'333333\x0b@'
p24
tp25
Rp26
I00
NNNI0
Ng26
tp27
baa(lp28
S'D'
p29
ag4
(g5
g6
Ntp30
Rp31
(g29
g9
(g13
S'fffffVx@'
p32
tp33
Rp34
I00
NNNI0
Ng34
tp35
baa(lp36
S'w0'
p37
ag4
(g5
g6
Ntp38
Rp39
(g37
g9
(g13
S'\x9a\xf1F1\x1f\x9d\xc8?'
p40
tp41
Rp42
I01
NF-inf
Finf
g9
(g13
S'S\x8b8\xb9\xbbwp?'
p43
tp44
Rp45
(dp46
S'slope'
p47
g9
(g13
S'xd\xd5Rc\x93\xe7?'
p48
tp49
Rp50
sS'r0'
p51
g9
(g13
S's\xffKEw{\xe8\xbf'
p52
tp53
Rp54
sF0.2041506942892748
tp55
baa(lp56
S'a'
p57
ag4
(g5
g6
Ntp58
Rp59
(g57
g9
(g13
S'Nb\x10X9\xb4\xe0?'
p60
tp61
Rp62
I00
NNNI0
Ng62
tp63
baa(lp64
g51
ag4
(g5
g6
Ntp65
Rp66
(g51
g9
(g13
S'\xb1\xca>\x98\x86\r\xc0?'
p67
tp68
Rp69
I01
NF-inf
Finf
g9
(g13
S'3\x1e\x11e/\xabh?'
p70
tp71
Rp72
(dp73
g47
g9
(g13
S'\xb4_\x8d\x17^\xca\xef\xbf'
p74
tp75
Rp76
sg37
g9
(g13
S'\x8f\xffKEw{\xe8\xbf'
p77
tp78
Rp79
sF0.11448360807866297
tp80
baa(lp81
S'lambdaex'
p82
ag4
(g5
g6
Ntp83
Rp84
(g82
g9
(g13
S'\x08\xac\x1cZd;\xdf?'
p85
tp86
Rp87
I00
NNNI0
Ng87
tp88
baa(lp89
S'lambdaem'
p90
ag4
(g5
g6
Ntp91
Rp92
(g90
g9
(g13
S'\xcf\xf7S\xe3\xa5\x9b\xe0?'
p93
tp94
Rp95
I00
NNNI0
Ng95
tp96
baa(lp97
S'n'
p98
ag4
(g5
g6
Ntp99
Rp100
(g98
g9
(g13
S'H\xe1z\x14\xaeG\xf5?'
p101
tp102
Rp103
I00
NNNI0
Ng103
tp104
baa(lp105
g47
ag4
(g5
g6
Ntp106
Rp107
(g47
g9
(g13
S'\x05V\xd2\x96\x92\x82\xf7?'
p108
tp109
Rp110
I01
NF-inf
Finf
g9
(g13
S'/\xf1\xe2\xb0\t\xfa\xa6?'
p111
tp112
Rp113
(dp114
g51
g9
(g13
S'\xb4_\x8d\x17^\xca\xef\xbf'
p115
tp116
Rp117
sg37
g9
(g13
S'\x95d\xd5Rc\x93\xe7?'
p118
tp119
Rp120
sF1.0
tp121
baatp122
Rp123
.clmfit.parameter
Parameters
p0
((lp1
(lp2
S'C_BR01562'
p3
accopy_reg
_reconstructor
p4
(clmfit.parameter
Parameter
p5
c__builtin__
object
p6
Ntp7
Rp8
(g3
cnumpy.core.multiarray
scalar
p9
(cnumpy
dtype
p10
(S'f8'
p11
I0
I1
tp12
Rp13
(I3
S'<'
p14
NNNI-1
I-1
I0
tp15
bS'333333\xfb?'
p16
tp17
Rp18
I00
NNNI0
Ng18
tp19
baa(lp20
S'C_BR03125'
p21
ag4
(g5
g6
Ntp22
Rp23
(g21
g9
(g13
S'333333\x0b@'
p24
tp25
Rp26
I00
NNNI0
Ng26
tp27
baa(lp28
S'D'
p29
ag4
(g5
g6
Ntp30
Rp31
(g29
g9
(g13
S'fffffVx@'
p32
tp33
Rp34
I00
NNNI0
Ng34
tp35
baa(lp36
S'w0'
p37
ag4
(g5
g6
Ntp38
Rp39
(g37
g9
(g13
S'\xacj/\x7fzT\xc7?'
p40
tp41
Rp42
I01
NF-inf
Finf
g9
(g13
S'/\xfe\xca\xc4\xba"p?'
p43
tp44
Rp45
(dp46
S'slope'
p47
g9
(g13
S'Y\x1533}\x96\xe5?'
p48
tp49
Rp50
sS'r0'
p51
g9
(g13
S'\xb7V\xfc\xa3SR\xe5\xbf'
p52
tp53
Rp54
sg9
(g13
S'\x9a\xf1F1\x1f\x9d\xc8?'
p55
tp56
Rp57
tp58
baa(lp59
S'a'
p60
ag4
(g5
g6
Ntp61
Rp62
(g60
g9
(g13
S'Nb\x10X9\xb4\xe0?'
p63
tp64
Rp65
I00
NNNI0
Ng65
tp66
baa(lp67
g51
ag4
(g5
g6
Ntp68
Rp69
(g51
g9
(g13
S'\xf4\xd5\x9bD\xd8\xc8\xc3?'
p70
tp71
Rp72
I01
NF-inf
Finf
g9
(g13
S'\x1b\xa4\x19\xd1\xb47h?'
p73
tp74
Rp75
(dp76
g47
g9
(g13
S'#\xcd\xc40\xb2\xbb\xef\xbf'
p77
tp78
Rp79
sg37
g9
(g13
S'\xb9V\xfc\xa3SR\xe5\xbf'
p80
tp81
Rp82
sg9
(g13
S'\xb1\xca>\x98\x86\r\xc0?'
p83
tp84
Rp85
tp86
baa(lp87
S'lambdaex'
p88
ag4
(g5
g6
Ntp89
Rp90
(g88
g9
(g13
S'\x08\xac\x1cZd;\xdf?'
p91
tp92
Rp93
I00
NNNI0
Ng93
tp94
baa(lp95
S'lambdaem'
p96
ag4
(g5
g6
Ntp97
Rp98
(g96
g9
(g13
S'\xcf\xf7S\xe3\xa5\x9b\xe0?'
p99
tp100
Rp101
I00
NNNI0
Ng101
tp102
baa(lp103
S'n'
p104
ag4
(g5
g6
Ntp105
Rp106
(g104
g9
(g13
S'H\xe1z\x14\xaeG\xf5?'
p107
tp108
Rp109
I00
NNNI0
Ng109
tp110
baa(lp111
g47
ag4
(g5
g6
Ntp112
Rp113
(g47
g9
(g13
S'\x08\x10w\x19vT\xf1?'
p114
tp115
Rp116
I01
NF-inf
Finf
g9
(g13
S"'\xec\n*d'\x9d?"
p117
tp118
Rp119
(dp120
g51
g9
(g13
S'#\xcd\xc40\xb2\xbb\xef\xbf'
p121
tp122
Rp123
sg37
g9
(g13
S'Y\x1533}\x96\xe5?'
p124
tp125
Rp126
sg9
(g13
S'\x05V\xd2\x96\x92\x82\xf7?'
p127
tp128
Rp129
tp130
baatp131
Rp132
.clmfit.parameter
Parameters
p0
((lp1
(lp2
S'C_BR01562'
p3
accopy_reg
_reconstructor
p4
(clmfit.parameter
Parameter
p5
c__builtin__
object
p6
Ntp7
Rp8
(g3
cnumpy.core.multiarray
scalar
p9
(cnumpy
dtype
p10
(S'f8'
p11
I0
I1
tp12
Rp13
(I3
S'<'
p14
NNNI-1
I-1
I0
tp15
bS'333333\xfb?'
p16
tp17
Rp18
I00
NNNI0
Ng18
tp19
baa(lp20
S'C_BR03125'
p21
ag4
(g5
g6
Ntp22
Rp23
(g21
g9
(g13
S'333333\x0b@'
p24
tp25
Rp26
I00
NNNI0
Ng26
tp27
baa(lp28
S'D'
p29
ag4
(g5
g6
Ntp30
Rp31
(g29
g9
(g13
S'fffffVx@'
p32
tp33
Rp34
I00
NNNI0
Ng34
tp35
baa(lp36
S'w0'
p37
ag4
(g5
g6
Ntp38
Rp39
(g37
g9
(g13
S'\xc4\x8c\xcc\xfb\xd6<\xc9?'
p40
tp41
Rp42
I01
NF-inf
Finf
g9
(g13
S'\xcd^@\xc2\xc4Yx?'
p43
tp44
Rp45
(dp46
S'slope'
p47
g9
(g13
S'\x8f\xef\x8evi\x1d\xe8?'
p48
tp49
Rp50
sS'tf'
p51
g9
(g13
S'\xa1r\x87\x1c\x9c&\xe1?'
p52
tp53
Rp54
sS'r0'
p55
g9
(g13
S'\xfb\x10\x07\xd9W\xca\xe8\xbf'
p56
tp57
Rp58
sS'F'
p59
g9
(g13
S'U\xf4J\x99Y\x93\xc5?'
p60
tp61
Rp62
sF0.21193897599416217
tp63
baa(lp64
S'a'
p65
ag4
(g5
g6
Ntp66
Rp67
(g65
g9
(g13
S'Nb\x10X9\xb4\xe0?'
p68
tp69
Rp70
I00
NNNI0
Ng70
tp71
baa(lp72
g55
ag4
(g5
g6
Ntp73
Rp74
(g55
g9
(g13
S'=\xc2b\x91%\xb6\xbf?'
p75
tp76
Rp77
I01
NF-inf
Finf
g9
(g13
S'\xda\xef\xe3\xcb\x88|k?'
p78
tp79
Rp80
(dp81
g47
g9
(g13
S'\xa6\x8b\xba!-\xcf\xef\xbf'
p82
tp83
Rp84
sg51
g9
(g13
S'\xf5\x85W\xbf*\x97\xd0\xbf'
p85
tp86
Rp87
sg59
g9
(g13
S'\xb1]\xff\xf8\x16\x99\xbe\xbf'
p88
tp89
Rp90
sg37
g9
(g13
S'\xf8\x10\x07\xd9W\xca\xe8\xbf'
p91
tp92
Rp93
sF0.11417879517501707
tp94
baa(lp95
S'lambdaex'
p96
ag4
(g5
g6
Ntp97
Rp98
(g96
g9
(g13
S'\x08\xac\x1cZd;\xdf?'
p99
tp100
Rp101
I00
NNNI0
Ng101
tp102
baa(lp103
S'lambdaem'
p104
ag4
(g5
g6
Ntp105
Rp106
(g104
g9
(g13
S'\xcf\xf7S\xe3\xa5\x9b\xe0?'
p107
tp108
Rp109
I00
NNNI0
Ng109
tp110
baa(lp111
S'n'
p112
ag4
(g5
g6
Ntp113
Rp114
(g112
g9
(g13
S'H\xe1z\x14\xaeG\xf5?'
p115
tp116
Rp117
I00
NNNI0
Ng117
tp118
baa(lp119
g47
ag4
(g5
g6
Ntp120
Rp121
(g47
g9
(g13
S'\xbb\x8f\xb38\xfe\xe1\xf7?'
p122
tp123
Rp124
I01
NF-inf
Finf
g9
(g13
S'\x91\x1e\xce\xa54\x9f\xa9?'
p125
tp126
Rp127
(dp128
g51
g9
(g13
S'Aw\x84ZG\x03\xd1?'
p129
tp130
Rp131
sg59
g9
(g13
S'\xfa\xf5X\xcf\xcc\x93\xbd?'
p132
tp133
Rp134
sg55
g9
(g13
S'\xa7\x8b\xba!-\xcf\xef\xbf'
p135
tp136
Rp137
sg37
g9
(g13
S'\x8f\xef\x8evi\x1d\xe8?'
p138
tp139
Rp140
sg9
(g13
S'\x08\x10w\x19vT\xf1?'
p141
tp142
Rp143
tp144
baa(lp145
g59
ag4
(g5
g6
Ntp146
Rp147
(g59
g9
(g13
S't\xb4ly\xdd\xa0\xac?'
p148
tp149
Rp150
I01
NF0.0
F0.5
g9
(g13
S'\x84#\xa4\xa6\xfd\x9a\xa1?'
p151
tp152
Rp153
(dp154
g47
g9
(g13
S'}\xf6X\xcf\xcc\x93\xbd?'
p155
tp156
Rp157
sg51
g9
(g13
S'&\xb98.\x12T\xde\xbf'
p158
tp159
Rp160
sg55
g9
(g13
S'\x13^\xff\xf8\x16\x99\xbe\xbf'
p161
tp162
Rp163
sg37
g9
(g13
S'\x80\xf4J\x99Y\x93\xc5?'
p164
tp165
Rp166
sF0.07407344161616564
tp167
baa(lp168
g51
ag4
(g5
g6
Ntp169
Rp170
(g51
g9
(g13
S'JY\xbc7j!\xbc>'
p171
tp172
Rp173
I01
NF1e-09
F0.0001
g9
(g13
S'\x0fI\n\xa6\x1f\x1d\xc0>'
p174
tp175
Rp176
(dp177
g47
g9
(g13
S'!w\x84ZG\x03\xd1?'
p178
tp179
Rp180
sg59
g9
(g13
S'/\xb98.\x12T\xde\xbf'
p181
tp182
Rp183
sg55
g9
(g13
S'\xe9\x85W\xbf*\x97\xd0\xbf'
p184
tp185
Rp186
sg37
g9
(g13
S'\x93r\x87\x1c\x9c&\xe1?'
p187
tp188
Rp189
sF3.2934160257431025e-06
tp190
baatp191
Rp192
.clmfit.parameter
Parameters
p0
((lp1
(lp2
S'C_BR01562'
p3
accopy_reg
_reconstructor
p4
(clmfit.parameter
Parameter
p5
c__builtin__
object
p6
Ntp7
Rp8
(g3
cnumpy.core.multiarray
scalar
p9
(cnumpy
dtype
p10
(S'f8'
p11
I0
I1
tp12
Rp13
(I3
S'<'
p14
NNNI-1
I-1
I0
tp15
bS'333333\xfb?'
p16
tp17
Rp18
I00
NNNI0
Ng18
tp19
baa(lp20
S'C_BR03125'
p21
ag4
(g5
g6
Ntp22
Rp23
(g21
g9
(g13
S'333333\x0b@'
p24
tp25
Rp26
I00
NNNI0
Ng26
tp27
baa(lp28
S'D'
p29
ag4
(g5
g6
Ntp30
Rp31
(g29
g9
(g13
S'fffffVx@'
p32
tp33
Rp34
I00
NNNI0
Ng34
tp35
baa(lp36
S'w0'
p37
ag4
(g5
g6
Ntp38
Rp39
(g37
g9
(g13
S'\xa2\xf3\x81\xd7,\xb7\xc7?'
p40
tp41
Rp42
I01
NF-inf
Finf
g9
(g13
S'aCEU\xe9\xc8u?'
p43
tp44
Rp45
(dp46
S'slope'
p47
g9
(g13
S'\x03b\x03\x02\xf3\xf6\xe5?'
p48
tp49
Rp50
sS'tf'
p51
g9
(g13
S'\xb9f9B\xb9\xb8\xde?'
p52
tp53
Rp54
sS'r0'
p55
g9
(g13
S'(Cq\xc4\xf7+\xe5\xbf'
p56
tp57
Rp58
sS'F'
p59
g9
(g13
S'\xb3\x19\xa3\xd7B\xbd\xae?'
p60
tp61
Rp62
sg9
(g13
S'\xc4\x8c\xcc\xfb\xd6<\xc9?'
p63
tp64
Rp65
tp66
baa(lp67
S'a'
p68
ag4
(g5
g6
Ntp69
Rp70
(g68
g9
(g13
S'Nb\x10X9\xb4\xe0?'
p71
tp72
Rp73
I00
NNNI0
Ng73
tp74
baa(lp75
g55
ag4
(g5
g6
Ntp76
Rp77
(g55
g9
(g13
S'\xf5\x0c\x8d\xad\xb5\xb0\xc3?'
p78
tp79
Rp80
I01
NF-inf
Finf
g9
(g13
S'\x119Ki\x83\x9di?'
p81
tp82
Rp83
(dp84
g47
g9
(g13
S'\x92\xf5r_\x9a\xb7\xef\xbf'
p85
tp86
Rp87
sg51
g9
(g13
S'\xd5j\xb0\xe7\x04\x04\xc5\xbf'
p88
tp89
Rp90
sg59
g9
(g13
S'\xfd\xf9 \xb1\x98$\xa7\xbf'
p91
tp92
Rp93
sg37
g9
(g13
S'!Cq\xc4\xf7+\xe5\xbf'
p94
tp95
Rp96
sg9
(g13
S'=\xc2b\x91%\xb6\xbf?'
p97
tp98
Rp99
tp100
baa(lp101
S'lambdaex'
p102
ag4
(g5
g6
Ntp103
Rp104
(g102
g9
(g13
S'\x08\xac\x1cZd;\xdf?'
p105
tp106
Rp107
I00
NNNI0
Ng107
tp108
baa(lp109
S'lambdaem'
p110
ag4
(g5
g6
Ntp111
Rp112
(g110
g9
(g13
S'\xcf\xf7S\xe3\xa5\x9b\xe0?'
p113
tp114
Rp115
I00
NNNI0
Ng115
tp116
baa(lp117
S'n'
p118
ag4
(g5
g6
Ntp119
Rp120
(g118
g9
(g13
S'H\xe1z\x14\xaeG\xf5?'
p121
tp122
Rp123
I00
NNNI0
Ng123
tp124
baa(lp125
g47
ag4
(g5
g6
Ntp126
Rp127
(g47
g9
(g13
S'7\xf8\xd9lrw\xf1?'
p128
tp129
Rp130
I01
NF-inf
Finf
g9
(g13
S'\xb5a\xe65*\x1e\x9f?'
p131
tp132
Rp133
(dp134
g51
g9
(g13
S'\xd4^\x12\x1a\x07M\xca?'
p135
tp136
Rp137
sg59
g9
(g13
S'\xf70\xb3\x16\x1d\xe4\xa6?'
p138
tp139
Rp140
sg55
g9
(g13
S'\x93\xf5r_\x9a\xb7\xef\xbf'
p141
tp142
Rp143
sg37
g9
(g13
S'\xfda\x03\x02\xf3\xf6\xe5?'
p144
tp145
Rp146
sg9
(g13
S'\xbb\x8f\xb38\xfe\xe1\xf7?'
p147
tp148
Rp149
tp150
baa(lp151
g59
ag4
(g5
g6
Ntp152
Rp153
(g59
g9
(g13
S'\xf4\xd6\x08n\xd7\xec\xa9?'
p154
tp155
Rp156
I01
NF0.0
F0.5
g9
(g13
S"'\x8c\xd4\x9b\xb8\xad\xa7?"
p157
tp158
Rp159
(dp160
g47
g9
(g13
S'\xed0\xb3\x16\x1d\xe4\xa6?'
p161
tp162
Rp163
sg51
g9
(g13
S'\xdd:\xed\xa1\xf5k\xe3\xbf'
p164
tp165
Rp166
sg55
g9
(g13
S'\xe4\xf9 \xb1\x98$\xa7\xbf'
p167
tp168
Rp169
sg37
g9
(g13
S'\x99\x19\xa3\xd7B\xbd\xae?'
p170
tp171
Rp172
sg9
(g13
S't\xb4ly\xdd\xa0\xac?'
p173
tp174
Rp175
tp176
baa(lp177
g51
ag4
(g5
g6
Ntp178
Rp179
(g51
g9
(g13
S'e]=\xf15\x85\xb1>'
p180
tp181
Rp182
I01
NF1e-09
F0.0001
g9
(g13
S"\xab;m'\xdc\x07\xbb>"
p183
tp184
Rp185
(dp186
g47
g9
(g13
S'\xec^\x12\x1a\x07M\xca?'
p187
tp188
Rp189
sg59
g9
(g13
S'\xdc:\xed\xa1\xf5k\xe3\xbf'
p190
tp191
Rp192
sg55
g9
(g13
S'\xf4j\xb0\xe7\x04\x04\xc5\xbf'
p193
tp194
Rp195
sg37
g9
(g13
S'\xc5f9B\xb9\xb8\xde?'
p196
tp197
Rp198
sg9
(g13
S'JY\xbc7j!\xbc>'
p199
tp200
Rp201
tp202
baatp203
Rp204
.clmfit.parameter
Parameters
p0
((lp1
(lp2
S'C_BR01562'
p3
accopy_reg
_reconstructor
p4
(clmfit.parameter
Parameter
p5
c__builtin__
object
p6
Ntp7
Rp8
(g3
cnumpy.core.multiarray
scalar
p9
(cnumpy
dtype
p10
(S'f8'
p11
I0
I1
tp12
Rp13
(I3
S'<'
p14
NNNI-1
I-1
I0
tp15
bS'\x9a\x99\x99\x99\x99\x99\xe9?'
p16
tp17
Rp18
I00
NNNI0
Ng18
tp19
baa(lp20
S'C_BR03125'
p21
ag4
(g5
g6
Ntp22
Rp23
(g21
g9
(g13
S'\x9a\x99\x99\x99\x99\x99\xf9?'
p24
tp25
Rp26
I00
NNNI0
Ng26
tp27
baa(lp28
S'C_BR06250'
p29
ag4
(g5
g6
Ntp30
Rp31
(g29
g9
(g13
S'\x9a\x99\x99\x99\x99\x99\t@'
p32
tp33
Rp34
I00
NNNI0
Ng34
tp35
baa(lp36
S'D'
p37
ag4
(g5
g6
Ntp38
Rp39
(g37
g9
(g13
S'H\xe1z\x14\xaeOy@'
p40
tp41
Rp42
I00
NNNI0
Ng42
tp43
baa(lp44
S'wxy'
p45
ag4
(g5
g6
Ntp46
Rp47
(g45
g9
(g13
S'\x7f\xb9b\x98\x15!\xd8?'
p48
tp49
Rp50
I01
NF-inf
Finf
g9
(g13
S'8:M\xd5\x1fca?'
p51
tp52
Rp53
(dp54
S'slope'
p55
g9
(g13
S'!k\\\x02E\x88\xe4?'
p56
tp57
Rp58
sS'wz'
p59
g9
(g13
S'~\xd3\xd6\xb4\x17\xf7\xe6\xbf'
p60
tp61
Rp62
sF0.25
tp63
baa(lp64
g59
ag4
(g5
g6
Ntp65
Rp66
(g59
g9
(g13
S'Q\xe7\x18Y\x94\xcb\x03@'
p67
tp68
Rp69
I01
NF-inf
Finf
g9
(g13
S'Y\x05\xb6|\xd5_\xbf?'
p70
tp71
Rp72
(dp73
g55
g9
(g13
S'Ff\x05\xea~\xcb\xef\xbf'
p74
tp75
Rp76
sg45
g9
(g13
S'\x85\xd3\xd6\xb4\x17\xf7\xe6\xbf'
p77
tp78
Rp79
sF0.7
tp80
baa(lp81
g55
ag4
(g5
g6
Ntp82
Rp83
(g55
g9
(g13
S'4\xc8C\xb8\x92\x04\x00@'
p84
tp85
Rp86
I01
NF-inf
Finf
g9
(g13
S'\x8c\x1c]\xfd\xd7@\xb6?'
p87
tp88
Rp89
(dp90
g45
g9
(g13
S'\x1dk\\\x02E\x88\xe4?'
p91
tp92
Rp93
sg59
g9
(g13
S'Ff\x05\xea~\xcb\xef\xbf'
p94
tp95
Rp96
sF1.0
tp97
baatp98
Rp99
.clmfit.parameter
Parameters
p0
((lp1
(lp2
S'C_BR01562'
p3
accopy_reg
_reconstructor
p4
(clmfit.parameter
Parameter
p5
c__builtin__
object
p6
Ntp7
Rp8
(g3
cnumpy.core.multiarray
scalar
p9
(cnumpy
dtype
p10
(S'f8'
p11
I0
I1
tp12
Rp13
(I3
S'<'
p14
NNNI-1
I-1
I0
tp15
bS'\x9a\x99\x99\x99\x99\x99\xe9?'
p16
tp17
Rp18
I00
NNNI0
Ng18
tp19
baa(lp20
S'C_BR03125'
p21
ag4
(g5
g6
Ntp22
Rp23
(g21
g9
(g13
S'\x9a\x99\x99\x99\x99\x99\xf9?'
p24
tp25
Rp26
I00
NNNI0
Ng26
tp27
baa(lp28
S'C_BR06250'
p29
ag4
(g5
g6
Ntp30
Rp31
(g29
g9
(g13
S'\x9a\x99\x99\x99\x99\x99\t@'
p32
tp33
Rp34
I00
NNNI0
Ng34
tp35
baa(lp36
S'D'
p37
ag4
(g5
g6
Ntp38
Rp39
(g37
g9
(g13
S'H\xe1z\x14\xaeOy@'
p40
tp41
Rp42
I00
NNNI0
Ng42
tp43
baa(lp44
S'wxy'
p45
ag4
(g5
g6
Ntp46
Rp47
(g45
g9
(g13
S'\xae\xbfq9\xbd\xa3\xd8?'
p48
tp49
Rp50
I01
NF-inf
Finf
g9
(g13
S'X\x94]\xf3t\x06p?'
p51
tp52
Rp53
(dp54
S'slope'
p55
g9
(g13
S'^\xb9\xb2\x931\xee\xe5?'
p56
tp57
Rp58
sS'tf'
p59
g9
(g13
S'\xc5\xf1\xacF\xc5y\xe4?'
p60
tp61
Rp62
sS'wz'
p63
g9
(g13
S'\x07>\xdd\x9f7\xc1\xe8\xbf'
p64
tp65
Rp66
sS'F'
p67
g9
(g13
S'n\x9dJ\xaa]\xd2\xdb?'
p68
tp69
Rp70
sg9
(g13
S'\x7f\xb9b\x98\x15!\xd8?'
p71
tp72
Rp73
tp74
baa(lp75
g63
ag4
(g5
g6
Ntp76
Rp77
(g63
g9
(g13
S'^\xc3\xf1\xe2\xcd\\\x02@'
p78
tp79
Rp80
I01
NF-inf
Finf
g9
(g13
S'X\xc7\x99\xa6*2\xbf?'
p81
tp82
Rp83
(dp84
g55
g9
(g13
S'J2\x05\xda\x00\xb0\xef\xbf'
p85
tp86
Rp87
sg59
g9
(g13
S'\xc11i\x8b\x07\xfe\xd6\xbf'
p88
tp89
Rp90
sg45
g9
(g13
S'\xd5=\xdd\x9f7\xc1\xe8\xbf'
p91
tp92
Rp93
sg67
g9
(g13
S'\xa3\xe6\x08\x00\x08W\xd3\xbf'
p94
tp95
Rp96
sg9
(g13
S'Q\xe7\x18Y\x94\xcb\x03@'
p97
tp98
Rp99
tp100
baa(lp101
g55
ag4
(g5
g6
Ntp102
Rp103
(g55
g9
(g13
S'\xac*\x8b\xe5s\xe7\x00@'
p104
tp105
Rp106
I01
NF-inf
Finf
g9
(g13
S'1\x85\xf63\xcd\x92\xb7?'
p107
tp108
Rp109
(dp110
g59
g9
(g13
S'ot\xd2\x10\xc64\xd3?'
p111
tp112
Rp113
sg67
g9
(g13
S'.5Ea\x0c\xba\xd0?'
p114
tp115
Rp116
sg45
g9
(g13
S'\x19\xb9\xb2\x931\xee\xe5?'
p117
tp118
Rp119
sg63
g9
(g13
S'B2\x05\xda\x00\xb0\xef\xbf'
p120
tp121
Rp122
sg9
(g13
S'4\xc8C\xb8\x92\x04\x00@'
p123
tp124
Rp125
tp126
baa(lp127
g67
ag4
(g5
g6
Ntp128
Rp129
(g67
g9
(g13
S'\xb8Vg\xa8\xb5\xa0\xab?'
p130
tp131
Rp132
I01
NF0.0
F0.5
g9
(g13
S'a\x9ay{t\x9a\x8a?'
p133
tp134
Rp135
(dp136
g55
g9
(g13
S'\xff4Ea\x0c\xba\xd0?'
p137
tp138
Rp139
sg59
g9
(g13
S'\xb1:^\xb6?\xd5\xc0\xbf'
p140
tp141
Rp142
sg45
g9
(g13
S'*\x9dJ\xaa]\xd2\xdb?'
p143
tp144
Rp145
sg63
g9
(g13
S'l\xe6\x08\x00\x08W\xd3\xbf'
p146
tp147
Rp148
sF0.05
tp149
baa(lp150
g59
ag4
(g5
g6
Ntp151
Rp152
(g59
g9
(g13
S'7cy\xb0c\x07\xe2>'
p153
tp154
Rp155
I01
NF1e-09
F0.0001
g9
(g13
S'\xc6\x11\xc1\xe1yB\xd2>'
p156
tp157
Rp158
(dp159
g55
g9
(g13
S'2u\xd2\x10\xc64\xd3?'
p160
tp161
Rp162
sg67
g9
(g13
S'\x1f:^\xb6?\xd5\xc0\xbf'
p163
tp164
Rp165
sg45
g9
(g13
S'\x12\xf2\xacF\xc5y\xe4?'
p166
tp167
Rp168
sg63
g9
(g13
S'U2i\x8b\x07\xfe\xd6\xbf'
p169
tp170
Rp171
sF1e-06
tp172
baatp173
Rp174
.clmfit.parameter
Parameters
p0
((lp1
(lp2
S'C_BR01562'
p3
accopy_reg
_reconstructor
p4
(clmfit.parameter
Parameter
p5
c__builtin__
object
p6
Ntp7
Rp8
(g3
cnumpy.core.multiarray
scalar
p9
(cnumpy
dtype
p10
(S'f8'
p11
I0
I1
tp12
Rp13
(I3
S'<'
p14
NNNI-1
I-1
I0
tp15
bS'\x9a\x99\x99\x99\x99\x99\xe9?'
p16
tp17
Rp18
I00
NNNI0
Ng18
tp19
baa(lp20
S'C_BR03125'
p21
ag4
(g5
g6
Ntp22
Rp23
(g21
g9
(g13
S'\x9a\x99\x99\x99\x99\x99\xf9?'
p24
tp25
Rp26
I00
NNNI0
Ng26
tp27
baa(lp28
S'C_BR06250'
p29
ag4
(g5
g6
Ntp30
Rp31
(g29
g9
(g13
S'\x9a\x99\x99\x99\x99\x99\t@'
p32
tp33
Rp34
I00
NNNI0
Ng34
tp35
baa(lp36
S'D'
p37
ag4
(g5
g6
Ntp38
Rp39
(g37
g9
(g13
S'H\xe1z\x14\xaeOy@'
p40
tp41
Rp42
I00
NNNI0
Ng42
tp43
baa(lp44
S'w0'
p45
ag4
(g5
g6
Ntp46
Rp47
(g45
g9
(g13
S'4\xc1\xf4\x8e\x83#\xd5?'
p48
tp49
Rp50
I01
NF-inf
Finf
g9
(g13
S'13t\xe7\xec|s?'
p51
tp52
Rp53
(dp54
S'slope'
p55
g9
(g13
S'.\xb7\xa0%^\x06\xeb?'
p56
tp57
Rp58
sS'r0'
p59
g9
(g13
S'V\x9d\xd0g2\xee\xec\xbf'
p60
tp61
Rp62
sF0.31628523301686345
tp63
baa(lp64
S'a'
p65
ag4
(g5
g6
Ntp66
Rp67
(g65
g9
(g13
S'w\xbe\x9f\x1a/\xdd\xe4?'
p68
tp69
Rp70
I00
NNNI0
Ng70
tp71
baa(lp72
g59
ag4
(g5
g6
Ntp73
Rp74
(g59
g9
(g13
S'\xcd0C\xce\x16Q\xc2?'
p75
tp76
Rp77
I01
NF-inf
Finf
g9
(g13
S'\xf5\x82\x90A\xddaq?'
p78
tp79
Rp80
(dp81
g55
g9
(g13
S"g\xa0'gc\xaf\xef\xbf"
p82
tp83
Rp84
sg45
g9
(g13
S'c\x9d\xd0g2\xee\xec\xbf'
p85
tp86
Rp87
sF0.15800667934395685
tp88
baa(lp89
S'lambdaex'
p90
ag4
(g5
g6
Ntp91
Rp92
(g90
g9
(g13
S'\xa8\xc6K7\x89A\xe4?'
p93
tp94
Rp95
I00
NNNI0
Ng95
tp96
baa(lp97
S'lambdaem'
p98
ag4
(g5
g6
Ntp99
Rp100
(g98
g9
(g13
S'\xa0\x1a/\xdd$\x06\xe5?'
p101
tp102
Rp103
I00
NNNI0
Ng103
tp104
baa(lp105
S'n'
p106
ag4
(g5
g6
Ntp107
Rp108
(g106
g9
(g13
S'H\xe1z\x14\xaeG\xf5?'
p109
tp110
Rp111
I00
NNNI0
Ng111
tp112
baa(lp113
g55
ag4
(g5
g6
Ntp114
Rp115
(g55
g9
(g13
S'\xe8\xa21\x11e\xf7\xfa?'
p116
tp117
Rp118
I01
NF-inf
Finf
g9
(g13
S'\x81g;L\xeb\xa6\xa7?'
p119
tp120
Rp121
(dp122
g59
g9
(g13
S"m\xa0'gc\xaf\xef\xbf"
p123
tp124
Rp125
sg45
g9
(g13
S'@\xb7\xa0%^\x06\xeb?'
p126
tp127
Rp128
sF1.0
tp129
baatp130
Rp131
.clmfit.parameter
Parameters
p0
((lp1
(lp2
S'C_BR01562'
p3
accopy_reg
_reconstructor
p4
(clmfit.parameter
Parameter
p5
c__builtin__
object
p6
Ntp7
Rp8
(g3
cnumpy.core.multiarray
scalar
p9
(cnumpy
dtype
p10
(S'f8'
p11
I0
I1
tp12
Rp13
(I3
S'<'
p14
NNNI-1
I-1
I0
tp15
bS'\x9a\x99\x99\x99\x99\x99\xe9?'
p16
tp17
Rp18
I00
NNNI0
Ng18
tp19
baa(lp20
S'C_BR03125'
p21
ag4
(g5
g6
Ntp22
Rp23
(g21
g9
(g13
S'\x9a\x99\x99\x99\x99\x99\xf9?'
p24
tp25
Rp26
I00
NNNI0
Ng26
tp27
baa(lp28
S'C_BR06250'
p29
ag4
(g5
g6
Ntp30
Rp31
(g29
g9
(g13
S'\x9a\x99\x99\x99\x99\x99\t@'
p32
tp33
Rp34
I00
NNNI0
Ng34
tp35
baa(lp36
S'D'
p37
ag4
(g5
g6
Ntp38
Rp39
(g37
g9
(g13
S'H\xe1z\x14\xaeOy@'
p40
tp41
Rp42
I00
NNNI0
Ng42
tp43
baa(lp44
S'w0'
p45
ag4
(g5
g6
Ntp46
Rp47
(g45
g9
(g13
S'\x0c[\x8e\xcb\rN\xd4?'
p48
tp49
Rp50
I01
NF-inf
Finf
g9
(g13
S'-\rL\x1e\x9a\x0fu?'
p51
tp52
Rp53
(dp54
S'slope'
p55
g9
(g13
S'\xeb"\x88\xfa_\x99\xea?'
p56
tp57
Rp58
sS'r0'
p59
g9
(g13
S'\x11\xda\xb4\x03\xaa\xa8\xec\xbf'
p60
tp61
Rp62
sg9
(g13
S'4\xc1\xf4\x8e\x83#\xd5?'
p63
tp64
Rp65
tp66
baa(lp67
S'a'
p68
ag4
(g5
g6
Ntp69
Rp70
(g68
g9
(g13
S'w\xbe\x9f\x1a/\xdd\xe4?'
p71
tp72
Rp73
I00
NNNI0
Ng73
tp74
baa(lp75
g59
ag4
(g5
g6
Ntp76
Rp77
(g59
g9
(g13
S':\xbc\xb5?s6\xc8?'
p78
tp79
Rp80
I01
NF-inf
Finf
g9
(g13
S'\xb4\xb1\xb4\xfd\x10\xa7s?'
p81
tp82
Rp83
(dp84
g55
g9
(g13
S'\xd4\xd0\xab\r\xc8\xa4\xef\xbf'
p85
tp86
Rp87
sg45
g9
(g13
S'\x14\xda\xb4\x03\xaa\xa8\xec\xbf'
p88
tp89
Rp90
sg9
(g13
S'\xcd0C\xce\x16Q\xc2?'
p91
tp92
Rp93
tp94
baa(lp95
S'lambdaex'
p96
ag4
(g5
g6
Ntp97
Rp98
(g96
g9
(g13
S'\xa8\xc6K7\x89A\xe4?'
p99
tp100
Rp101
I00
NNNI0
Ng101
tp102
baa(lp103
S'lambdaem'
p104
ag4
(g5
g6
Ntp105
Rp106
(g104
g9
(g13
S'\xa0\x1a/\xdd$\x06\xe5?'
p107
tp108
Rp109
I00
NNNI0
Ng109
tp110
baa(lp111
S'n'
p112
ag4
(g5
g6
Ntp113
Rp114
(g112
g9
(g13
S'H\xe1z\x14\xaeG\xf5?'
p115
tp116
Rp117
I00
NNNI0
Ng117
tp118
baa(lp119
g55
ag4
(g5
g6
Ntp120
Rp121
(g55
g9
(g13
S'\xf8\xc0\x0b\xdfL\xfd\xf2?'
p122
tp123
Rp124
I01
NF-inf
Finf
g9
(g13
S'\xad,6=\x7f#\x9d?'
p125
tp126
Rp127
(dp128
g59
g9
(g13
S'\xd4\xd0\xab\r\xc8\xa4\xef\xbf'
p129
tp130
Rp131
sg45
g9
(g13
S'\xef"\x88\xfa_\x99\xea?'
p132
tp133
Rp134
sg9
(g13
S'\xe8\xa21\x11e\xf7\xfa?'
p135
tp136
Rp137
tp138
baatp139
Rp140
.clmfit.parameter
Parameters
p0
((lp1
(lp2
S'C_BR01562'
p3
accopy_reg
_reconstructor
p4
(clmfit.parameter
Parameter
p5
c__builtin__
object
p6
Ntp7
Rp8
(g3
cnumpy.core.multiarray
scalar
p9
(cnumpy
dtype
p10
(S'f8'
p11
I0
I1
tp12
Rp13
(I3
S'<'
p14
NNNI-1
I-1
I0
tp15
bS'\x9a\x99\x99\x99\x99\x99\xe9?'
p16
tp17
Rp18
I00
NNNI0
Ng18
tp19
baa(lp20
S'C_BR03125'
p21
ag4
(g5
g6
Ntp22
Rp23
(g21
g9
(g13
S'\x9a\x99\x99\x99\x99\x99\xf9?'
p24
tp25
Rp26
I00
NNNI0
Ng26
tp27
baa(lp28
S'C_BR06250'
p29
ag4
(g5
g6
Ntp30
Rp31
(g29
g9
(g13
S'\x9a\x99\x99\x99\x99\x99\t@'
p32
tp33
Rp34
I00
NNNI0
Ng34
tp35
baa(lp36
S'D'
p37
ag4
(g5
g6
Ntp38
Rp39
(g37
g9
(g13
S'H\xe1z\x14\xaeOy@'
p40
tp41
Rp42
I00
NNNI0
Ng42
tp43
baa(lp44
S'w0'
p45
ag4
(g5
g6
Ntp46
Rp47
(g45
g9
(g13
S'\xec\xe37\xe0\xa1\xb3\xd5?'
p48
tp49
Rp50
I01
NF-inf
Finf
g9
(g13
S'\x0f1&\xd8k\x08{?'
p51
tp52
Rp53
(dp54
S'slope'
p55
g9
(g13
S'\x8f\x88\xc7\x1bk8\xeb?'
p56
tp57
Rp58
sS'tf'
p59
g9
(g13
S',\xe5\xd9kBJ\xe0?'
p60
tp61
Rp62
sS'r0'
p63
g9
(g13
S'\x80\xed`\x0b\x13(\xed\xbf'
p64
tp65
Rp66
sS'F'
p67
g9
(g13
S'\x0f\xc7\x85\xd5u\x18\xc8?'
p68
tp69
Rp70
sF0.31791731785368893
tp71
baa(lp72
S'a'
p73
ag4
(g5
g6
Ntp74
Rp75
(g73
g9
(g13
S'w\xbe\x9f\x1a/\xdd\xe4?'
p76
tp77
Rp78
I00
NNNI0
Ng78
tp79
baa(lp80
g63
ag4
(g5
g6
Ntp81
Rp82
(g63
g9
(g13
S'O\xe6\x81\x89\n\xb3\xc1?'
p83
tp84
Rp85
I01
NF-inf
Finf
g9
(g13
S'\xa1\x97\x18\xf0\xf8\xf6s?'
p86
tp87
Rp88
(dp89
g55
g9
(g13
S';\x83\xdd\xa0\xb5\xaa\xef\xbf'
p90
tp91
Rp92
sg59
g9
(g13
S'\x17\xcc\x91\x0f\xa3\x10\xd6\xbf'
p93
tp94
Rp95
sg67
g9
(g13
S'\xd3\xe5\xa3\xcb\x07\xb7\xc3\xbf'
p96
tp97
Rp98
sg45
g9
(g13
S'\x80\xed`\x0b\x13(\xed\xbf'
p99
tp100
Rp101
sF0.1578243938066113
tp102
baa(lp103
S'lambdaex'
p104
ag4
(g5
g6
Ntp105
Rp106
(g104
g9
(g13
S'\xa8\xc6K7\x89A\xe4?'
p107
tp108
Rp109
I00
NNNI0
Ng109
tp110
baa(lp111
S'lambdaem'
p112
ag4
(g5
g6
Ntp113
Rp114
(g112
g9
(g13
S'\xa0\x1a/\xdd$\x06\xe5?'
p115
tp116
Rp117
I00
NNNI0
Ng117
tp118
baa(lp119
S'n'
p120
ag4
(g5
g6
Ntp121
Rp122
(g120
g9
(g13
S'H\xe1z\x14\xaeG\xf5?'
p123
tp124
Rp125
I00
NNNI0
Ng125
tp126
baa(lp127
g55
ag4
(g5
g6
Ntp128
Rp129
(g55
g9
(g13
S'\xbd\ndB(\xb3\xfb?'
p130
tp131
Rp132
I01
NF-inf
Finf
g9
(g13
S'$q\x87\xbbt\xff\xaa?'
p133
tp134
Rp135
(dp136
g59
g9
(g13
S'\xa0I\xd93\xee;\xd3?'
p137
tp138
Rp139
sg67
g9
(g13
S'\xe4[\x9d\xb9\xe2\xc0\xc1?'
p140
tp141
Rp142
sg63
g9
(g13
S'=\x83\xdd\xa0\xb5\xaa\xef\xbf'
p143
tp144
Rp145
sg45
g9
(g13
S'\x90\x88\xc7\x1bk8\xeb?'
p146
tp147
Rp148
sg9
(g13
S'\xf8\xc0\x0b\xdfL\xfd\xf2?'
p149
tp150
Rp151
tp152
baa(lp153
g67
ag4
(g5
g6
Ntp154
Rp155
(g67
g9
(g13
S'\xc8R\xcf\xcb\x8e\x82\xa8?'
p156
tp157
Rp158
I01
NF0.0
F0.5
g9
(g13
S'#\x15\xf6r\x0f"\x92?'
p159
tp160
Rp161
(dp162
g55
g9
(g13
S'\x87\\\x9d\xb9\xe2\xc0\xc1?'
p163
tp164
Rp165
sg59
g9
(g13
S'\x07\x12>\x08\x1f*\xdc\xbf'
p166
tp167
Rp168
sg63
g9
(g13
S't\xe6\xa3\xcb\x07\xb7\xc3\xbf'
p169
tp170
Rp171
sg45
g9
(g13
S'\xa4\xc7\x85\xd5u\x18\xc8?'
p172
tp173
Rp174
sF0.03853490619082328
tp175
baa(lp176
g59
ag4
(g5
g6
Ntp177
Rp178
(g59
g9
(g13
S'\x18\x9b/\xc4\x1ff\xd0>'
p179
tp180
Rp181
I01
NF1e-09
F0.0001
g9
(g13
S'\x9d\x02MJh\xd8\xc6>'
p182
tp183
Rp184
(dp185
g55
g9
(g13
S'rI\xd93\xee;\xd3?'
p186
tp187
Rp188
sg67
g9
(g13
S'%\x12>\x08\x1f*\xdc\xbf'
p189
tp190
Rp191
sg63
g9
(g13
S'\xda\xcb\x91\x0f\xa3\x10\xd6\xbf'
p192
tp193
Rp194
sg45
g9
(g13
S'\n\xe5\xd9kBJ\xe0?'
p195
tp196
Rp197
sF1.5386378698268153e-06
tp198
baatp199
Rp200
.clmfit.parameter
Parameters
p0
((lp1
(lp2
S'C_BR01562'
p3
accopy_reg
_reconstructor
p4
(clmfit.parameter
Parameter
p5
c__builtin__
object
p6
Ntp7
Rp8
(g3
cnumpy.core.multiarray
scalar
p9
(cnumpy
dtype
p10
(S'f8'
p11
I0
I1
tp12
Rp13
(I3
S'<'
p14
NNNI-1
I-1
I0
tp15
bS'\x9a\x99\x99\x99\x99\x99\xe9?'
p16
tp17
Rp18
I00
NNNI0
Ng18
tp19
baa(lp20
S'C_BR03125'
p21
ag4
(g5
g6
Ntp22
Rp23
(g21
g9
(g13
S'\x9a\x99\x99\x99\x99\x99\xf9?'
p24
tp25
Rp26
I00
NNNI0
Ng26
tp27
baa(lp28
S'C_BR06250'
p29
ag4
(g5
g6
Ntp30
Rp31
(g29
g9
(g13
S'\x9a\x99\x99\x99\x99\x99\t@'
p32
tp33
Rp34
I00
NNNI0
Ng34
tp35
baa(lp36
S'D'
p37
ag4
(g5
g6
Ntp38
Rp39
(g37
g9
(g13
S'H\xe1z\x14\xaeOy@'
p40
tp41
Rp42
I00
NNNI0
Ng42
tp43
baa(lp44
S'w0'
p45
ag4
(g5
g6
Ntp46
Rp47
(g45
g9
(g13
S'\xe2!Xg\x19\xce\xd4?'
p48
tp49
Rp50
I01
NF-inf
Finf
g9
(g13
S'K\x98\xd5\x99RH|?'
p51
tp52
Rp53
(dp54
S'slope'
p55
g9
(g13
S'\x07\xb1+\xc4\xf5\xee\xea?'
p56
tp57
Rp58
sS'tf'
p59
g9
(g13
S'Wp\xcfz\x9b\xae\xde?'
p60
tp61
Rp62
sS'r0'
p63
g9
(g13
S'\x97\x9a\x1d\xc4:\xff\xec\xbf'
p64
tp65
Rp66
sS'F'
p67
g9
(g13
S'\xcb \xfaE7\x1b\xc1?'
p68
tp69
Rp70
sg9
(g13
S'\xec\xe37\xe0\xa1\xb3\xd5?'
p71
tp72
Rp73
tp74
baa(lp75
S'a'
p76
ag4
(g5
g6
Ntp77
Rp78
(g76
g9
(g13
S'w\xbe\x9f\x1a/\xdd\xe4?'
p79
tp80
Rp81
I00
NNNI0
Ng81
tp82
baa(lp83
g63
ag4
(g5
g6
Ntp84
Rp85
(g63
g9
(g13
S'Go\x8d\xf7\xf9\xa2\xc7?'
p86
tp87
Rp88
I01
NF-inf
Finf
g9
(g13
S'\x8c\x03B\xfa2\xa6v?'
p89
tp90
Rp91
(dp92
g55
g9
(g13
S'\x07>\xa3L\xe2\xa0\xef\xbf'
p93
tp94
Rp95
sg59
g9
(g13
S'\xef\xb4\x85\xf2\xa4x\xd4\xbf'
p96
tp97
Rp98
sg67
g9
(g13
S'\xa53\x1cLp<\xbc\xbf'
p99
tp100
Rp101
sg45
g9
(g13
S'\x84\x9a\x1d\xc4:\xff\xec\xbf'
p102
tp103
Rp104
sg9
(g13
S'O\xe6\x81\x89\n\xb3\xc1?'
p105
tp106
Rp107
tp108
baa(lp109
S'lambdaex'
p110
ag4
(g5
g6
Ntp111
Rp112
(g110
g9
(g13
S'\xa8\xc6K7\x89A\xe4?'
p113
tp114
Rp115
I00
NNNI0
Ng115
tp116
baa(lp117
S'lambdaem'
p118
ag4
(g5
g6
Ntp119
Rp120
(g118
g9
(g13
S'\xa0\x1a/\xdd$\x06\xe5?'
p121
tp122
Rp123
I00
NNNI0
Ng123
tp124
baa(lp125
S'n'
p126
ag4
(g5
g6
Ntp127
Rp128
(g126
g9
(g13
S'H\xe1z\x14\xaeG\xf5?'
p129
tp130
Rp131
I00
NNNI0
Ng131
tp132
baa(lp133
g55
ag4
(g5
g6
Ntp134
Rp135
(g55
g9
(g13
S'U\xa4\xf4\xd9\xb5[\xf3?'
p136
tp137
Rp138
I01
NF-inf
Finf
g9
(g13
S' \xb4C\x86\x0en\xa0?'
p139
tp140
Rp141
(dp142
g59
g9
(g13
S'\xfe\x1a-\xb5\xb9\xc3\xd1?'
p143
tp144
Rp145
sg67
g9
(g13
S'*\xef\x04\x8e\xcdY\xb9?'
p146
tp147
Rp148
sg63
g9
(g13
S'\x01>\xa3L\xe2\xa0\xef\xbf'
p149
tp150
Rp151
sg45
g9
(g13
S'\xf0\xb0+\xc4\xf5\xee\xea?'
p152
tp153
Rp154
sg9
(g13
S'\xbd\ndB(\xb3\xfb?'
p155
tp156
Rp157
tp158
baa(lp159
g67
ag4
(g5
g6
Ntp160
Rp161
(g67
g9
(g13
S'$&.\xde\xa0\xb5\xa7?'
p162
tp163
Rp164
I01
NF0.0
F0.5
g9
(g13
S'\xfa\xb3\x8c&\xf5\x99\x94?'
p165
tp166
Rp167
(dp168
g55
g9
(g13
S'\xcb\xef\x04\x8e\xcdY\xb9?'
p169
tp170
Rp171
sg59
g9
(g13
S'\x19\x93\x16\x87\xcdL\xe0\xbf'
p172
tp173
Rp174
sg63
g9
(g13
S'+4\x1cLp<\xbc\xbf'
p175
tp176
Rp177
sg45
g9
(g13
S'\x0f!\xfaE7\x1b\xc1?'
p178
tp179
Rp180
sg9
(g13
S'\xc8R\xcf\xcb\x8e\x82\xa8?'
p181
tp182
Rp183
tp184
baa(lp185
g59
ag4
(g5
g6
Ntp186
Rp187
(g59
g9
(g13
S'b\xe7]a\x1aO\xc9>'
p188
tp189
Rp190
I01
NF1e-09
F0.0001
g9
(g13
S'\xf5\xd7\x9d\xae\x19\xd3\xc3>'
p191
tp192
Rp193
(dp194
g55
g9
(g13
S'\xfa\x1a-\xb5\xb9\xc3\xd1?'
p195
tp196
Rp197
sg67
g9
(g13
S' \x93\x16\x87\xcdL\xe0\xbf'
p198
tp199
Rp200
sg63
g9
(g13
S'\x01\xb5\x85\xf2\xa4x\xd4\xbf'
p201
tp202
Rp203
sg45
g9
(g13
S'pp\xcfz\x9b\xae\xde?'
p204
tp205
Rp206
sg9
(g13
S'\x18\x9b/\xc4\x1ff\xd0>'
p207
tp208
Rp209
tp210
baatp211
Rp212
.