clmfit.parameter
Parameters
p0
(tRp1
(dp2
S'unique_symbols'
p3
(dp4
S'slope'
p5
F1.0
sS'infty'
p6
Finf
sS'None'
p7
NsS'False'
p8
I00
sS'D'
p9
cnumpy.core.multiarray
scalar
p10
(cnumpy
dtype
p11
(S'f8'
p12
I0
I1
tp13
Rp14
(I3
S'<'
p15
NNNI-1
I-1
I0
tp16
bS'fffffVx@'
p17
tp18
Rp19
sS'NAN'
p20
Fnan
sS'nan'
p21
Fnan
sS'wxy'
p22
g10
(g14
S'\x161\x9b\xf2~I\xd0?'
p23
tp24
Rp25
sS'little_endian'
p26
I01
sS'C_BO01562'
p27
g10
(g14
S'L\x85d@wc\x02@'
p28
tp29
Rp30
sS'C_BO03125'
p31
g10
(g14
S'\xf2\xea\xc6\x02\xf9d\x12@'
p32
tp33
Rp34
sS'newaxis'
p35
NsS'e'
p36
F2.718281828459045
sS'inf'
p37
Finf
sS'pi'
p38
F3.141592653589793
sS'True'
p39
I01
sS'Inf'
p40
Finf
sS'wz'
p41
g10
(g14
S'\x83j\x9fz,\xdc\t@'
p42
tp43
Rp44
ssS'params'
p45
(lp46
ccopy_reg
_reconstructor
p47
(clmfit.parameter
Parameter
p48
c__builtin__
object
p49
Ntp50
Rp51
(g27
g10
(g14
S'L\x85d@wc\x02@'
p52
tp53
Rp54
I00
NNNI0
Ng54
tp55
bag47
(g48
g49
Ntp56
Rp57
(g31
g10
(g14
S'\xf2\xea\xc6\x02\xf9d\x12@'
p58
tp59
Rp60
I00
NNNI0
Ng60
tp61
bag47
(g48
g49
Ntp62
Rp63
(g9
g10
(g14
S'fffffVx@'
p64
tp65
Rp66
I00
NNNI0
Ng66
tp67
bag47
(g48
g49
Ntp68
Rp69
(g22
g10
(g14
S'\x161\x9b\xf2~I\xd0?'
p70
tp71
Rp72
I01
NF-inf
Finf
g10
(g14
S'\xcc\x15\xc1q\xc1gZ?'
p73
tp74
Rp75
(dp76
g41
g10
(g14
S".V\x0es'j\xec\xbf"
p77
tp78
Rp79
sF0.25
tp80
bag47
(g48
g49
Ntp81
Rp82
(g41
g10
(g14
S'\x83j\x9fz,\xdc\t@'
p83
tp84
Rp85
I01
NF-inf
Finf
g10
(g14
S'\x8e\x99\xb0^C\x9f\x98?'
p86
tp87
Rp88
(dp89
g22
g10
(g14
S".V\x0es'j\xec\xbf"
p90
tp91
Rp92
sF0.7
tp93
bag47
(g48
g49
Ntp94
Rp95
(g5
F1.0
I00
NNNI0
NF1.0
tp96
basb.clmfit.parameter
Parameters
p0
(tRp1
(dp2
S'unique_symbols'
p3
(dp4
S'slope'
p5
F1.0
sS'infty'
p6
Finf
sS'None'
p7
NsS'False'
p8
I00
sS'D'
p9
cnumpy.core.multiarray
scalar
p10
(cnumpy
dtype
p11
(S'f8'
p12
I0
I1
tp13
Rp14
(I3
S'<'
p15
NNNI-1
I-1
I0
tp16
bS'fffffVx@'
p17
tp18
Rp19
sS'F'
p20
g10
(g14
S'@\x92\x0e\xa5V\xd9\xb8?'
p21
tp22
Rp23
sS'NAN'
p24
Fnan
sS'nan'
p25
Fnan
sS'wxy'
p26
g10
(g14
S'|\xb6\x92\xf7\x0f\xac\xd0?'
p27
tp28
Rp29
sS'little_endian'
p30
I01
sS'C_BO01562'
p31
g10
(g14
S'L\x85d@wc\x02@'
p32
tp33
Rp34
sS'C_BO03125'
p35
g10
(g14
S'\xf2\xea\xc6\x02\xf9d\x12@'
p36
tp37
Rp38
sS'newaxis'
p39
NsS'tf'
p40
g10
(g14
S'=]3\xd72i\xd1>'
p41
tp42
Rp43
sS'e'
p44
F2.718281828459045
sS'inf'
p45
Finf
sS'pi'
p46
F3.141592653589793
sS'True'
p47
I01
sS'Inf'
p48
Finf
sS'wz'
p49
g10
(g14
S'Y\x02\xb0k\xd3r\t@'
p50
tp51
Rp52
ssS'params'
p53
(lp54
ccopy_reg
_reconstructor
p55
(clmfit.parameter
Parameter
p56
c__builtin__
object
p57
Ntp58
Rp59
(g31
g10
(g14
S'L\x85d@wc\x02@'
p60
tp61
Rp62
I00
NNNI0
Ng62
tp63
bag55
(g56
g57
Ntp64
Rp65
(g35
g10
(g14
S'\xf2\xea\xc6\x02\xf9d\x12@'
p66
tp67
Rp68
I00
NNNI0
Ng68
tp69
bag55
(g56
g57
Ntp70
Rp71
(g9
g10
(g14
S'fffffVx@'
p72
tp73
Rp74
I00
NNNI0
Ng74
tp75
bag55
(g56
g57
Ntp76
Rp77
(g26
g10
(g14
S'|\xb6\x92\xf7\x0f\xac\xd0?'
p78
tp79
Rp80
I01
NF-inf
Finf
g10
(g14
S'\x99\xe4b\xe9\x88!e?'
p81
tp82
Rp83
(dp84
g40
g10
(g14
S'\xfe\x8d^\xe8o\x07\xe3?'
p85
tp86
Rp87
sg49
g10
(g14
S'\xc2Z\x8d5\x0b\xaf\xec\xbf'
p88
tp89
Rp90
sg20
g10
(g14
S'J\xd8\xd1\xc5\xb9\x1f\xd3?'
p91
tp92
Rp93
sF0.25
tp94
bag55
(g56
g57
Ntp95
Rp96
(g49
g10
(g14
S'Y\x02\xb0k\xd3r\t@'
p97
tp98
Rp99
I01
NF-inf
Finf
g10
(g14
S'\x01\xfez\xa8\xe4\xa9\x9c?'
p100
tp101
Rp102
(dp103
g40
g10
(g14
S'\x13\xf07\x83\xd0\x9e\xd9\xbf'
p104
tp105
Rp106
sg26
g10
(g14
S'\xc1Z\x8d5\x0b\xaf\xec\xbf'
p107
tp108
Rp109
sg20
g10
(g14
S'\xc0\x92|\xee\xe7\x05\xd0\xbf'
p110
tp111
Rp112
sF0.7
tp113
bag55
(g56
g57
Ntp114
Rp115
(g5
F1.0
I00
NNNI0
NF1.0
tp116
bag55
(g56
g57
Ntp117
Rp118
(g20
g10
(g14
S'@\x92\x0e\xa5V\xd9\xb8?'
p119
tp120
Rp121
I01
NF0.0
F0.5
g10
(g14
S'\xf9\xf9\xab\xd7\xb7\x06\x95?'
p122
tp123
Rp124
(dp125
g40
g10
(g14
S'\xf2*\xe1\x9b\x1b\xb1\xd4\xbf'
p126
tp127
Rp128
sg26
g10
(g14
S'J\xd8\xd1\xc5\xb9\x1f\xd3?'
p129
tp130
Rp131
sg49
g10
(g14
S'\xbe\x92|\xee\xe7\x05\xd0\xbf'
p132
tp133
Rp134
sF0.05
tp135
bag55
(g56
g57
Ntp136
Rp137
(g40
g10
(g14
S'=]3\xd72i\xd1>'
p138
tp139
Rp140
I01
NF1e-09
F0.0001
g10
(g14
S'\xd1h\x14k\x9a\xa0\xbe>'
p141
tp142
Rp143
(dp144
g20
g10
(g14
S'\xf3*\xe1\x9b\x1b\xb1\xd4\xbf'
p145
tp146
Rp147
sg26
g10
(g14
S'\xfe\x8d^\xe8o\x07\xe3?'
p148
tp149
Rp150
sg49
g10
(g14
S'\x15\xf07\x83\xd0\x9e\xd9\xbf'
p151
tp152
Rp153
sF1e-06
tp154
basb.clmfit.parameter
Parameters
p0
(tRp1
(dp2
S'unique_symbols'
p3
(dp4
S'slope'
p5
F1.0
sS'NAN'
p6
Fnan
sS'lambdaem'
p7
cnumpy.core.multiarray
scalar
p8
(cnumpy
dtype
p9
(S'f8'
p10
I0
I1
tp11
Rp12
(I3
S'<'
p13
NNNI-1
I-1
I0
tp14
bS'\xcf\xf7S\xe3\xa5\x9b\xe0?'
p15
tp16
Rp17
sS'C_BO03125'
p18
g8
(g12
S'\xf2\xea\xc6\x02\xf9d\x12@'
p19
tp20
Rp21
sS'w0'
p22
g8
(g12
S'=M\x12\xf2\xe6\x9f\xc7?'
p23
tp24
Rp25
sS'inf'
p26
Finf
sS'lambdaex'
p27
g8
(g12
S'\x08\xac\x1cZd;\xdf?'
p28
tp29
Rp30
sS'nan'
p31
Fnan
sS'pi'
p32
F3.141592653589793
sS'True'
p33
I01
sS'infty'
p34
Finf
sS'None'
p35
NsS'D'
p36
g8
(g12
S'fffffVx@'
p37
tp38
Rp39
sS'C_BO01562'
p40
g8
(g12
S'L\x85d@wc\x02@'
p41
tp42
Rp43
sS'r0'
p44
g8
(g12
S'A<\xb6\x0bX\x18\xc1?'
p45
tp46
Rp47
sS'little_endian'
p48
I01
sS'a'
p49
g8
(g12
S'Nb\x10X9\xb4\xe0?'
p50
tp51
Rp52
sS'False'
p53
I00
sS'n'
p54
g8
(g12
S'H\xe1z\x14\xaeG\xf5?'
p55
tp56
Rp57
sS'newaxis'
p58
NsS'Inf'
p59
Finf
sS'e'
p60
F2.718281828459045
ssS'params'
p61
(lp62
ccopy_reg
_reconstructor
p63
(clmfit.parameter
Parameter
p64
c__builtin__
object
p65
Ntp66
Rp67
(g40
g8
(g12
S'L\x85d@wc\x02@'
p68
tp69
Rp70
I00
NNNI0
Ng70
tp71
bag63
(g64
g65
Ntp72
Rp73
(g18
g8
(g12
S'\xf2\xea\xc6\x02\xf9d\x12@'
p74
tp75
Rp76
I00
NNNI0
Ng76
tp77
bag63
(g64
g65
Ntp78
Rp79
(g36
g8
(g12
S'fffffVx@'
p80
tp81
Rp82
I00
NNNI0
Ng82
tp83
bag63
(g64
g65
Ntp84
Rp85
(g22
g8
(g12
S'=M\x12\xf2\xe6\x9f\xc7?'
p86
tp87
Rp88
I01
NF-inf
Finf
g8
(g12
S'\x07q\x8a.\xf3\xf3e?'
p89
tp90
Rp91
(dp92
g44
g8
(g12
S'\x0f\xed=H\xfeO\xc2\xbf'
p93
tp94
Rp95
sF0.18530016656750004
tp96
bag63
(g64
g65
Ntp97
Rp98
(g49
g8
(g12
S'Nb\x10X9\xb4\xe0?'
p99
tp100
Rp101
I00
NNNI0
Ng101
tp102
bag63
(g64
g65
Ntp103
Rp104
(g44
g8
(g12
S'A<\xb6\x0bX\x18\xc1?'
p105
tp106
Rp107
I01
NF-inf
Finf
g8
(g12
S'\xe3\xe9\xe9\xb6\xe5\xb35?'
p108
tp109
Rp110
(dp111
g22
g8
(g12
S'N\xed=H\xfeO\xc2\xbf'
p112
tp113
Rp114
sF0.1332456411365
tp115
bag63
(g64
g65
Ntp116
Rp117
(g27
g8
(g12
S'\x08\xac\x1cZd;\xdf?'
p118
tp119
Rp120
I00
NNNI0
Ng120
tp121
bag63
(g64
g65
Ntp122
Rp123
(g7
g8
(g12
S'\xcf\xf7S\xe3\xa5\x9b\xe0?'
p124
tp125
Rp126
I00
NNNI0
Ng126
tp127
bag63
(g64
g65
Ntp128
Rp129
(g54
g8
(g12
S'H\xe1z\x14\xaeG\xf5?'
p130
tp131
Rp132
I00
NNNI0
Ng132
tp133
bag63
(g64
g65
Ntp134
Rp135
(g5
F1.0
I00
NNNI0
NF1.0
tp136
basb.clmfit.parameter
Parameters
p0
(tRp1
(dp2
S'unique_symbols'
p3
(dp4
S'slope'
p5
F1.0
sS'NAN'
p6
Fnan
sS'lambdaem'
p7
cnumpy.core.multiarray
scalar
p8
(cnumpy
dtype
p9
(S'f8'
p10
I0
I1
tp11
Rp12
(I3
S'<'
p13
NNNI-1
I-1
I0
tp14
bS'\xcf\xf7S\xe3\xa5\x9b\xe0?'
p15
tp16
Rp17
sS'C_BO03125'
p18
g8
(g12
S'\xf2\xea\xc6\x02\xf9d\x12@'
p19
tp20
Rp21
sS'w0'
p22
g8
(g12
S'\xb43\x1f\xbdG4\xc5?'
p23
tp24
Rp25
sS'inf'
p26
Finf
sS'lambdaex'
p27
g8
(g12
S'\x08\xac\x1cZd;\xdf?'
p28
tp29
Rp30
sS'nan'
p31
Fnan
sS'pi'
p32
F3.141592653589793
sS'True'
p33
I01
sS'infty'
p34
Finf
sS'None'
p35
NsS'D'
p36
g8
(g12
S'fffffVx@'
p37
tp38
Rp39
sS'C_BO01562'
p40
g8
(g12
S'L\x85d@wc\x02@'
p41
tp42
Rp43
sS'r0'
p44
g8
(g12
S'\xbb\x19}tR\x8e\xc6?'
p45
tp46
Rp47
sS'little_endian'
p48
I01
sS'a'
p49
g8
(g12
S'Nb\x10X9\xb4\xe0?'
p50
tp51
Rp52
sS'False'
p53
I00
sS'n'
p54
g8
(g12
S'H\xe1z\x14\xaeG\xf5?'
p55
tp56
Rp57
sS'newaxis'
p58
NsS'Inf'
p59
Finf
sS'e'
p60
F2.718281828459045
ssS'params'
p61
(lp62
ccopy_reg
_reconstructor
p63
(clmfit.parameter
Parameter
p64
c__builtin__
object
p65
Ntp66
Rp67
(g40
g8
(g12
S'L\x85d@wc\x02@'
p68
tp69
Rp70
I00
NNNI0
Ng70
tp71
bag63
(g64
g65
Ntp72
Rp73
(g18
g8
(g12
S'\xf2\xea\xc6\x02\xf9d\x12@'
p74
tp75
Rp76
I00
NNNI0
Ng76
tp77
bag63
(g64
g65
Ntp78
Rp79
(g36
g8
(g12
S'fffffVx@'
p80
tp81
Rp82
I00
NNNI0
Ng82
tp83
bag63
(g64
g65
Ntp84
Rp85
(g22
g8
(g12
S'\xb43\x1f\xbdG4\xc5?'
p86
tp87
Rp88
I01
NF-inf
Finf
g8
(g12
S'Q\x9cq\x83HFg?'
p89
tp90
Rp91
(dp92
g44
g8
(g12
S'\xab\xc5Qi\xde\xec\xe3?'
p93
tp94
Rp95
sF0.18530016656750004
tp96
bag63
(g64
g65
Ntp97
Rp98
(g49
g8
(g12
S'Nb\x10X9\xb4\xe0?'
p99
tp100
Rp101
I00
NNNI0
Ng101
tp102
bag63
(g64
g65
Ntp103
Rp104
(g44
g8
(g12
S'\xbb\x19}tR\x8e\xc6?'
p105
tp106
Rp107
I01
NF-inf
Finf
g8
(g12
S')\x80\xeac\n\xbeB?'
p108
tp109
Rp110
(dp111
g22
g8
(g12
S'\xac\xc5Qi\xde\xec\xe3?'
p112
tp113
Rp114
sF0.1332456411365
tp115
bag63
(g64
g65
Ntp116
Rp117
(g27
g8
(g12
S'\x08\xac\x1cZd;\xdf?'
p118
tp119
Rp120
I00
NNNI0
Ng120
tp121
bag63
(g64
g65
Ntp122
Rp123
(g7
g8
(g12
S'\xcf\xf7S\xe3\xa5\x9b\xe0?'
p124
tp125
Rp126
I00
NNNI0
Ng126
tp127
bag63
(g64
g65
Ntp128
Rp129
(g54
g8
(g12
S'H\xe1z\x14\xaeG\xf5?'
p130
tp131
Rp132
I00
NNNI0
Ng132
tp133
bag63
(g64
g65
Ntp134
Rp135
(g5
F1.0
I00
NNNI0
NF1.0
tp136
basb.clmfit.parameter
Parameters
p0
(tRp1
(dp2
S'unique_symbols'
p3
(dp4
S'slope'
p5
F1.0
sS'NAN'
p6
Fnan
sS'lambdaem'
p7
cnumpy.core.multiarray
scalar
p8
(cnumpy
dtype
p9
(S'f8'
p10
I0
I1
tp11
Rp12
(I3
S'<'
p13
NNNI-1
I-1
I0
tp14
bS'\xcf\xf7S\xe3\xa5\x9b\xe0?'
p15
tp16
Rp17
sS'C_BO03125'
p18
g8
(g12
S'\xf2\xea\xc6\x02\xf9d\x12@'
p19
tp20
Rp21
sS'w0'
p22
g8
(g12
S'\x15I\xf0\xacE\xc9\xc7?'
p23
tp24
Rp25
sS'inf'
p26
Finf
sS'lambdaex'
p27
g8
(g12
S'\x08\xac\x1cZd;\xdf?'
p28
tp29
Rp30
sS'nan'
p31
Fnan
sS'tf'
p32
g8
(g12
S'\xcc\x98\x1e`\xa9,\xa7>'
p33
tp34
Rp35
sS'pi'
p36
F3.141592653589793
sS'True'
p37
I01
sS'infty'
p38
Finf
sS'None'
p39
NsS'D'
p40
g8
(g12
S'fffffVx@'
p41
tp42
Rp43
sS'F'
p44
g8
(g12
S'\x04.\xdelZG\xa9?'
p45
tp46
Rp47
sS'C_BO01562'
p48
g8
(g12
S'L\x85d@wc\x02@'
p49
tp50
Rp51
sS'r0'
p52
g8
(g12
S'\x9d^\x0b\xee=\x1a\xc1?'
p53
tp54
Rp55
sS'little_endian'
p56
I01
sS'a'
p57
g8
(g12
S'Nb\x10X9\xb4\xe0?'
p58
tp59
Rp60
sS'False'
p61
I00
sS'n'
p62
g8
(g12
S'H\xe1z\x14\xaeG\xf5?'
p63
tp64
Rp65
sS'newaxis'
p66
NsS'Inf'
p67
Finf
sS'e'
p68
F2.718281828459045
ssS'params'
p69
(lp70
ccopy_reg
_reconstructor
p71
(clmfit.parameter
Parameter
p72
c__builtin__
object
p73
Ntp74
Rp75
(g48
g8
(g12
S'L\x85d@wc\x02@'
p76
tp77
Rp78
I00
NNNI0
Ng78
tp79
bag71
(g72
g73
Ntp80
Rp81
(g18
g8
(g12
S'\xf2\xea\xc6\x02\xf9d\x12@'
p82
tp83
Rp84
I00
NNNI0
Ng84
tp85
bag71
(g72
g73
Ntp86
Rp87
(g40
g8
(g12
S'fffffVx@'
p88
tp89
Rp90
I00
NNNI0
Ng90
tp91
bag71
(g72
g73
Ntp92
Rp93
(g22
g8
(g12
S'\x15I\xf0\xacE\xc9\xc7?'
p94
tp95
Rp96
I01
NF-inf
Finf
g8
(g12
S'\xd4[\xd3_\t8j?'
p97
tp98
Rp99
(dp100
g32
g8
(g12
S'\xe7x\xfb\xd0\xc3\xf5\xd8?'
p101
tp102
Rp103
sg52
g8
(g12
S'o\xa1\xfeW\xce#\x94\xbf'
p104
tp105
Rp106
sg44
g8
(g12
S'\x01I\n:C\x16\x95\xbf'
p107
tp108
Rp109
sF0.18689693587950001
tp110
bag71
(g72
g73
Ntp111
Rp112
(g57
g8
(g12
S'Nb\x10X9\xb4\xe0?'
p113
tp114
Rp115
I00
NNNI0
Ng115
tp116
bag71
(g72
g73
Ntp117
Rp118
(g52
g8
(g12
S'\x9d^\x0b\xee=\x1a\xc1?'
p119
tp120
Rp121
I01
NF-inf
Finf
g8
(g12
S'\x06\xd7V\xe6o\x836?'
p122
tp123
Rp124
(dp125
g32
g8
(g12
S'm\xa1\xa3\xbaK\xba\xc6?'
p126
tp127
Rp128
sg44
g8
(g12
S'\x16`\xa7\xe3\xdf\x1a\x9a\xbf'
p129
tp130
Rp131
sg22
g8
(g12
S'\x91\xa1\xfeW\xce#\x94\xbf'
p132
tp133
Rp134
sF0.13329488109749998
tp135
bag71
(g72
g73
Ntp136
Rp137
(g27
g8
(g12
S'\x08\xac\x1cZd;\xdf?'
p138
tp139
Rp140
I00
NNNI0
Ng140
tp141
bag71
(g72
g73
Ntp142
Rp143
(g7
g8
(g12
S'\xcf\xf7S\xe3\xa5\x9b\xe0?'
p144
tp145
Rp146
I00
NNNI0
Ng146
tp147
bag71
(g72
g73
Ntp148
Rp149
(g62
g8
(g12
S'H\xe1z\x14\xaeG\xf5?'
p150
tp151
Rp152
I00
NNNI0
Ng152
tp153
bag71
(g72
g73
Ntp154
Rp155
(g5
F1.0
I00
NNNI0
NF1.0
tp156
bag71
(g72
g73
Ntp157
Rp158
(g44
g8
(g12
S'\x04.\xdelZG\xa9?'
p159
tp160
Rp161
I01
NF0.0
F0.5
g8
(g12
S':\xf1\xc3\x89%\xa3\xaf?'
p162
tp163
Rp164
(dp165
g32
g8
(g12
S'\x84\xeae\x04\xbe\t\xe7\xbf'
p166
tp167
Rp168
sg52
g8
(g12
S'\x0c`\xa7\xe3\xdf\x1a\x9a\xbf'
p169
tp170
Rp171
sg22
g8
(g12
S'4H\n:C\x16\x95\xbf'
p172
tp173
Rp174
sF0.28077907622695003
tp175
bag71
(g72
g73
Ntp176
Rp177
(g32
g8
(g12
S'\xcc\x98\x1e`\xa9,\xa7>'
p178
tp179
Rp180
I01
NF1e-09
F0.0001
g8
(g12
S'\xf7\xa0p\xf0y\x86\xb5>'
p181
tp182
Rp183
(dp184
g44
g8
(g12
S'\x87\xeae\x04\xbe\t\xe7\xbf'
p185
tp186
Rp187
sg52
g8
(g12
S'o\xa1\xa3\xbaK\xba\xc6?'
p188
tp189
Rp190
sg22
g8
(g12
S'\xdex\xfb\xd0\xc3\xf5\xd8?'
p191
tp192
Rp193
sF6.535869215467e-07
tp194
basb.clmfit.parameter
Parameters
p0
(tRp1
(dp2
S'unique_symbols'
p3
(dp4
S'slope'
p5
F1.0
sS'NAN'
p6
Fnan
sS'lambdaem'
p7
cnumpy.core.multiarray
scalar
p8
(cnumpy
dtype
p9
(S'f8'
p10
I0
I1
tp11
Rp12
(I3
S'<'
p13
NNNI-1
I-1
I0
tp14
bS'\xcf\xf7S\xe3\xa5\x9b\xe0?'
p15
tp16
Rp17
sS'C_BO03125'
p18
g8
(g12
S'\xf2\xea\xc6\x02\xf9d\x12@'
p19
tp20
Rp21
sS'w0'
p22
g8
(g12
S'\xc7\x9a)r$<\xc5?'
p23
tp24
Rp25
sS'inf'
p26
Finf
sS'lambdaex'
p27
g8
(g12
S'\x08\xac\x1cZd;\xdf?'
p28
tp29
Rp30
sS'nan'
p31
Fnan
sS'tf'
p32
g8
(g12
S'\x00\xef\xec_\xa5\x1c\x97>'
p33
tp34
Rp35
sS'pi'
p36
F3.141592653589793
sS'True'
p37
I01
sS'infty'
p38
Finf
sS'None'
p39
NsS'D'
p40
g8
(g12
S'fffffVx@'
p41
tp42
Rp43
sS'F'
p44
g8
(g12
S'\xd0M6\xfc)\xdb\x93?'
p45
tp46
Rp47
sS'C_BO01562'
p48
g8
(g12
S'L\x85d@wc\x02@'
p49
tp50
Rp51
sS'r0'
p52
g8
(g12
S'Q\x00\xa1\t\xe8\x8f\xc6?'
p53
tp54
Rp55
sS'little_endian'
p56
I01
sS'a'
p57
g8
(g12
S'Nb\x10X9\xb4\xe0?'
p58
tp59
Rp60
sS'False'
p61
I00
sS'n'
p62
g8
(g12
S'H\xe1z\x14\xaeG\xf5?'
p63
tp64
Rp65
sS'newaxis'
p66
NsS'Inf'
p67
Finf
sS'e'
p68
F2.718281828459045
ssS'params'
p69
(lp70
ccopy_reg
_reconstructor
p71
(clmfit.parameter
Parameter
p72
c__builtin__
object
p73
Ntp74
Rp75
(g48
g8
(g12
S'L\x85d@wc\x02@'
p76
tp77
Rp78
I00
NNNI0
Ng78
tp79
bag71
(g72
g73
Ntp80
Rp81
(g18
g8
(g12
S'\xf2\xea\xc6\x02\xf9d\x12@'
p82
tp83
Rp84
I00
NNNI0
Ng84
tp85
bag71
(g72
g73
Ntp86
Rp87
(g40
g8
(g12
S'fffffVx@'
p88
tp89
Rp90
I00
NNNI0
Ng90
tp91
bag71
(g72
g73
Ntp92
Rp93
(g22
g8
(g12
S'\xc7\x9a)r$<\xc5?'
p94
tp95
Rp96
I01
NF-inf
Finf
g8
(g12
S'\xd6\x90\xb2\x92\xda7j?'
p97
tp98
Rp99
(dp100
g32
g8
(g12
S'\xf4\x95\xcfi\xbd\xb6\xd4?'
p101
tp102
Rp103
sg52
g8
(g12
S'V1\xee\xa4\x17I\xe6?'
p104
tp105
Rp106
sg44
g8
(g12
S'\x9e\xf0O\rGX\xb5\xbf'
p107
tp108
Rp109
sF0.18689693587950001
tp110
bag71
(g72
g73
Ntp111
Rp112
(g57
g8
(g12
S'Nb\x10X9\xb4\xe0?'
p113
tp114
Rp115
I00
NNNI0
Ng115
tp116
bag71
(g72
g73
Ntp117
Rp118
(g52
g8
(g12
S'Q\x00\xa1\t\xe8\x8f\xc6?'
p119
tp120
Rp121
I01
NF-inf
Finf
g8
(g12
S'\x93u\xa2?\\\xfdD?'
p122
tp123
Rp124
(dp125
g32
g8
(g12
S'\xb5E\xbb\x86\x10\xc0\xd4?'
p126
tp127
Rp128
sg44
g8
(g12
S'J;o\x13q\x7f\xb6\xbf'
p129
tp130
Rp131
sg22
g8
(g12
S'T1\xee\xa4\x17I\xe6?'
p132
tp133
Rp134
sF0.13329488109749998
tp135
bag71
(g72
g73
Ntp136
Rp137
(g27
g8
(g12
S'\x08\xac\x1cZd;\xdf?'
p138
tp139
Rp140
I00
NNNI0
Ng140
tp141
bag71
(g72
g73
Ntp142
Rp143
(g7
g8
(g12
S'\xcf\xf7S\xe3\xa5\x9b\xe0?'
p144
tp145
Rp146
I00
NNNI0
Ng146
tp147
bag71
(g72
g73
Ntp148
Rp149
(g62
g8
(g12
S'H\xe1z\x14\xaeG\xf5?'
p150
tp151
Rp152
I00
NNNI0
Ng152
tp153
bag71
(g72
g73
Ntp154
Rp155
(g5
F1.0
I00
NNNI0
NF1.0
tp156
bag71
(g72
g73
Ntp157
Rp158
(g44
g8
(g12
S'\xd0M6\xfc)\xdb\x93?'
p159
tp160
Rp161
I01
NF0.0
F0.5
g8
(g12
S'\x95\x18\x83\x937\xd8\xc0?'
p162
tp163
Rp164
(dp165
g32
g8
(g12
S'\xfc\xda\xabA\xa93\xea\xbf'
p166
tp167
Rp168
sg52
g8
(g12
S' ;o\x13q\x7f\xb6\xbf'
p169
tp170
Rp171
sg22
g8
(g12
S'D\xf0O\rGX\xb5\xbf'
p172
tp173
Rp174
sF0.28077907622695003
tp175
bag71
(g72
g73
Ntp176
Rp177
(g32
g8
(g12
S'\x00\xef\xec_\xa5\x1c\x97>'
p178
tp179
Rp180
I01
NF1e-09
F0.0001
g8
(g12
S'\x88\x8b\xfd\x058\xaa\xc7>'
p181
tp182
Rp183
(dp184
g44
g8
(g12
S'\x00\xdb\xabA\xa93\xea\xbf'
p185
tp186
Rp187
sg52
g8
(g12
S'\xa6E\xbb\x86\x10\xc0\xd4?'
p188
tp189
Rp190
sg22
g8
(g12
S'\xde\x95\xcfi\xbd\xb6\xd4?'
p191
tp192
Rp193
sF6.535869215467e-07
tp194
basb.clmfit.parameter
Parameters
p0
(tRp1
(dp2
S'unique_symbols'
p3
(dp4
S'slope'
p5
F1.0
sS'infty'
p6
Finf
sS'None'
p7
NsS'pi'
p8
F3.141592653589793
sS'False'
p9
I00
sS'C_OR03125'
p10
cnumpy.core.multiarray
scalar
p11
(cnumpy
dtype
p12
(S'f8'
p13
I0
I1
tp14
Rp15
(I3
S'<'
p16
NNNI-1
I-1
I0
tp17
bS'~Cv\x18r0\x02@'
p18
tp19
Rp20
sS'NAN'
p21
Fnan
sS'nan'
p22
Fnan
sS'C_OR06250'
p23
g11
(g15
S'~Cv\x18r0\x12@'
p24
tp25
Rp26
sS'wxy'
p27
g11
(g15
S'Afb\xb8w\x9a\xd7?'
p28
tp29
Rp30
sS'wz'
p31
g11
(g15
S'\xf6k\xac}E\xe1\x0c@'
p32
tp33
Rp34
sS'C_OR01562'
p35
g11
(g15
S'Sk\xab\xa3\xf4.\xf2?'
p36
tp37
Rp38
sS'newaxis'
p39
NsS'e'
p40
F2.718281828459045
sS'inf'
p41
Finf
sS'little_endian'
p42
I01
sS'True'
p43
I01
sS'Inf'
p44
Finf
sS'D'
p45
g11
(g15
S'H\xe1z\x14\xaeOy@'
p46
tp47
Rp48
ssS'params'
p49
(lp50
ccopy_reg
_reconstructor
p51
(clmfit.parameter
Parameter
p52
c__builtin__
object
p53
Ntp54
Rp55
(g35
g11
(g15
S'Sk\xab\xa3\xf4.\xf2?'
p56
tp57
Rp58
I00
NNNI0
Ng58
tp59
bag51
(g52
g53
Ntp60
Rp61
(g10
g11
(g15
S'~Cv\x18r0\x02@'
p62
tp63
Rp64
I00
NNNI0
Ng64
tp65
bag51
(g52
g53
Ntp66
Rp67
(g23
g11
(g15
S'~Cv\x18r0\x12@'
p68
tp69
Rp70
I00
NNNI0
Ng70
tp71
bag51
(g52
g53
Ntp72
Rp73
(g45
g11
(g15
S'H\xe1z\x14\xaeOy@'
p74
tp75
Rp76
I00
NNNI0
Ng76
tp77
bag51
(g52
g53
Ntp78
Rp79
(g27
g11
(g15
S'Afb\xb8w\x9a\xd7?'
p80
tp81
Rp82
I01
NF-inf
Finf
g11
(g15
S'\xfb\x03Y\xbd=\xd1Y?'
p83
tp84
Rp85
(dp86
g31
g11
(g15
S'\xdd\x85\x1e\xe1k6\xed\xbf'
p87
tp88
Rp89
sF0.25
tp90
bag51
(g52
g53
Ntp91
Rp92
(g31
g11
(g15
S'\xf6k\xac}E\xe1\x0c@'
p93
tp94
Rp95
I01
NF-inf
Finf
g11
(g15
S'\xef\x14wl\x06\xf4\x93?'
p96
tp97
Rp98
(dp99
g27
g11
(g15
S'\xdd\x85\x1e\xe1k6\xed\xbf'
p100
tp101
Rp102
sF0.7
tp103
bag51
(g52
g53
Ntp104
Rp105
(g5
F1.0
I00
NNNI0
NF1.0
tp106
basb.clmfit.parameter
Parameters
p0
(tRp1
(dp2
S'unique_symbols'
p3
(dp4
S'slope'
p5
F1.0
sS'infty'
p6
Finf
sS'None'
p7
NsS'pi'
p8
F3.141592653589793
sS'False'
p9
I00
sS'C_OR03125'
p10
cnumpy.core.multiarray
scalar
p11
(cnumpy
dtype
p12
(S'f8'
p13
I0
I1
tp14
Rp15
(I3
S'<'
p16
NNNI-1
I-1
I0
tp17
bS'~Cv\x18r0\x02@'
p18
tp19
Rp20
sS'F'
p21
g11
(g15
S'<^K\xd5V\x8a\xa8?'
p22
tp23
Rp24
sS'NAN'
p25
Fnan
sS'nan'
p26
Fnan
sS'C_OR06250'
p27
g11
(g15
S'~Cv\x18r0\x12@'
p28
tp29
Rp30
sS'wxy'
p31
g11
(g15
S'D\n\x1f\xb5\x11\xb3\xd7?'
p32
tp33
Rp34
sS'wz'
p35
g11
(g15
S'\x98\\\x10*\xad\xc8\x0c@'
p36
tp37
Rp38
sS'C_OR01562'
p39
g11
(g15
S'Sk\xab\xa3\xf4.\xf2?'
p40
tp41
Rp42
sS'newaxis'
p43
NsS'tf'
p44
g11
(g15
S'\x87P\xdf\xe1\xcd\xae\xc1>'
p45
tp46
Rp47
sS'e'
p48
F2.718281828459045
sS'inf'
p49
Finf
sS'little_endian'
p50
I01
sS'True'
p51
I01
sS'Inf'
p52
Finf
sS'D'
p53
g11
(g15
S'H\xe1z\x14\xaeOy@'
p54
tp55
Rp56
ssS'params'
p57
(lp58
ccopy_reg
_reconstructor
p59
(clmfit.parameter
Parameter
p60
c__builtin__
object
p61
Ntp62
Rp63
(g39
g11
(g15
S'Sk\xab\xa3\xf4.\xf2?'
p64
tp65
Rp66
I00
NNNI0
Ng66
tp67
bag59
(g60
g61
Ntp68
Rp69
(g10
g11
(g15
S'~Cv\x18r0\x02@'
p70
tp71
Rp72
I00
NNNI0
Ng72
tp73
bag59
(g60
g61
Ntp74
Rp75
(g27
g11
(g15
S'~Cv\x18r0\x12@'
p76
tp77
Rp78
I00
NNNI0
Ng78
tp79
bag59
(g60
g61
Ntp80
Rp81
(g53
g11
(g15
S'H\xe1z\x14\xaeOy@'
p82
tp83
Rp84
I00
NNNI0
Ng84
tp85
bag59
(g60
g61
Ntp86
Rp87
(g31
g11
(g15
S'D\n\x1f\xb5\x11\xb3\xd7?'
p88
tp89
Rp90
I01
NF-inf
Finf
g11
(g15
S'h\xff\xe7\xf0[\x19^?'
p91
tp92
Rp93
(dp94
g44
g11
(g15
S'i\xc7\x9e\x17\xe2\xde\xd7?'
p95
tp96
Rp97
sg35
g11
(g15
S'\xd9\\\xa8\x91~F\xed\xbf'
p98
tp99
Rp100
sg21
g11
(g15
S'V\xb4\x00\xd7$k\x98?'
p101
tp102
Rp103
sF0.25
tp104
bag59
(g60
g61
Ntp105
Rp106
(g35
g11
(g15
S'\x98\\\x10*\xad\xc8\x0c@'
p107
tp108
Rp109
I01
NF-inf
Finf
g11
(g15
S'\x99g\x93\xd5);\x95?'
p110
tp111
Rp112
(dp113
g44
g11
(g15
S'\x0c#\x0c\x91"1\xd0\xbf'
p114
tp115
Rp116
sg31
g11
(g15
S'\xda\\\xa8\x91~F\xed\xbf'
p117
tp118
Rp119
sg21
g11
(g15
S'0\xae\xf7\xcd\t\x8b\x98\xbf'
p120
tp121
Rp122
sF0.7
tp123
bag59
(g60
g61
Ntp124
Rp125
(g5
F1.0
I00
NNNI0
NF1.0
tp126
bag59
(g60
g61
Ntp127
Rp128
(g21
g11
(g15
S'<^K\xd5V\x8a\xa8?'
p129
tp130
Rp131
I01
NF0.0
F0.5
g11
(g15
S'\xb4\x1b\x96G]f\x9a?'
p132
tp133
Rp134
(dp135
g44
g11
(g15
S'\xd7\x87O\x13c\x03\xe5\xbf'
p136
tp137
Rp138
sg31
g11
(g15
S'\xd1\xb4\x00\xd7$k\x98?'
p139
tp140
Rp141
sg35
g11
(g15
S'\xad\xae\xf7\xcd\t\x8b\x98\xbf'
p142
tp143
Rp144
sF0.05
tp145
bag59
(g60
g61
Ntp146
Rp147
(g44
g11
(g15
S'\x87P\xdf\xe1\xcd\xae\xc1>'
p148
tp149
Rp150
I01
NF1e-09
F0.0001
g11
(g15
S'n\xb2K\xac\x0bZ\xbe>'
p151
tp152
Rp153
(dp154
g21
g11
(g15
S'\xd7\x87O\x13c\x03\xe5\xbf'
p155
tp156
Rp157
sg31
g11
(g15
S'l\xc7\x9e\x17\xe2\xde\xd7?'
p158
tp159
Rp160
sg35
g11
(g15
S'\x14#\x0c\x91"1\xd0\xbf'
p161
tp162
Rp163
sF1e-06
tp164
basb.clmfit.parameter
Parameters
p0
(tRp1
(dp2
S'unique_symbols'
p3
(dp4
S'slope'
p5
F1.0
sS'NAN'
p6
Fnan
sS'lambdaem'
p7
cnumpy.core.multiarray
scalar
p8
(cnumpy
dtype
p9
(S'f8'
p10
I0
I1
tp11
Rp12
(I3
S'<'
p13
NNNI-1
I-1
I0
tp14
bS'\xa0\x1a/\xdd$\x06\xe5?'
p15
tp16
Rp17
sS'w0'
p18
g8
(g12
S'h\xa4\xfc\n\xd6\x92\xd3?'
p19
tp20
Rp21
sS'inf'
p22
Finf
sS'lambdaex'
p23
g8
(g12
S'\xa8\xc6K7\x89A\xe4?'
p24
tp25
Rp26
sS'C_OR03125'
p27
g8
(g12
S'~Cv\x18r0\x02@'
p28
tp29
Rp30
sS'nan'
p31
Fnan
sS'pi'
p32
F3.141592653589793
sS'True'
p33
I01
sS'infty'
p34
Finf
sS'None'
p35
NsS'D'
p36
g8
(g12
S'H\xe1z\x14\xaeOy@'
p37
tp38
Rp39
sS'C_OR06250'
p40
g8
(g12
S'~Cv\x18r0\x12@'
p41
tp42
Rp43
sS'r0'
p44
g8
(g12
S'H\xd5\xac\x18\xf1\xbe\xc5?'
p45
tp46
Rp47
sS'little_endian'
p48
I01
sS'a'
p49
g8
(g12
S'w\xbe\x9f\x1a/\xdd\xe4?'
p50
tp51
Rp52
sS'False'
p53
I00
sS'n'
p54
g8
(g12
S'H\xe1z\x14\xaeG\xf5?'
p55
tp56
Rp57
sS'C_OR01562'
p58
g8
(g12
S'Sk\xab\xa3\xf4.\xf2?'
p59
tp60
Rp61
sS'newaxis'
p62
NsS'Inf'
p63
Finf
sS'e'
p64
F2.718281828459045
ssS'params'
p65
(lp66
ccopy_reg
_reconstructor
p67
(clmfit.parameter
Parameter
p68
c__builtin__
object
p69
Ntp70
Rp71
(g58
g8
(g12
S'Sk\xab\xa3\xf4.\xf2?'
p72
tp73
Rp74
I00
NNNI0
Ng74
tp75
bag67
(g68
g69
Ntp76
Rp77
(g27
g8
(g12
S'~Cv\x18r0\x02@'
p78
tp79
Rp80
I00
NNNI0
Ng80
tp81
bag67
(g68
g69
Ntp82
Rp83
(g40
g8
(g12
S'~Cv\x18r0\x12@'
p84
tp85
Rp86
I00
NNNI0
Ng86
tp87
bag67
(g68
g69
Ntp88
Rp89
(g36
g8
(g12
S'H\xe1z\x14\xaeOy@'
p90
tp91
Rp92
I00
NNNI0
Ng92
tp93
bag67
(g68
g69
Ntp94
Rp95
(g18
g8
(g12
S'h\xa4\xfc\n\xd6\x92\xd3?'
p96
tp97
Rp98
I01
NF-inf
Finf
g8
(g12
S'x\xe3l\xd1,~e?'
p99
tp100
Rp101
(dp102
g44
g8
(g12
S'\x86f&\x95k\xaa\xea\xbf'
p103
tp104
Rp105
sF0.32648237496733334
tp106
bag67
(g68
g69
Ntp107
Rp108
(g49
g8
(g12
S'w\xbe\x9f\x1a/\xdd\xe4?'
p109
tp110
Rp111
I00
NNNI0
Ng111
tp112
bag67
(g68
g69
Ntp113
Rp114
(g44
g8
(g12
S'H\xd5\xac\x18\xf1\xbe\xc5?'
p115
tp116
Rp117
I01
NF-inf
Finf
g8
(g12
S'G2\x8a\xc7\x18fA?'
p118
tp119
Rp120
(dp121
g18
g8
(g12
S'\x86f&\x95k\xaa\xea\xbf'
p122
tp123
Rp124
sF0.14702637298466667
tp125
bag67
(g68
g69
Ntp126
Rp127
(g23
g8
(g12
S'\xa8\xc6K7\x89A\xe4?'
p128
tp129
Rp130
I00
NNNI0
Ng130
tp131
bag67
(g68
g69
Ntp132
Rp133
(g7
g8
(g12
S'\xa0\x1a/\xdd$\x06\xe5?'
p134
tp135
Rp136
I00
NNNI0
Ng136
tp137
bag67
(g68
g69
Ntp138
Rp139
(g54
g8
(g12
S'H\xe1z\x14\xaeG\xf5?'
p140
tp141
Rp142
I00
NNNI0
Ng142
tp143
bag67
(g68
g69
Ntp144
Rp145
(g5
F1.0
I00
NNNI0
NF1.0
tp146
basb.clmfit.parameter
Parameters
p0
(tRp1
(dp2
S'unique_symbols'
p3
(dp4
S'slope'
p5
F1.0
sS'NAN'
p6
Fnan
sS'lambdaem'
p7
cnumpy.core.multiarray
scalar
p8
(cnumpy
dtype
p9
(S'f8'
p10
I0
I1
tp11
Rp12
(I3
S'<'
p13
NNNI-1
I-1
I0
tp14
bS'\xa0\x1a/\xdd$\x06\xe5?'
p15
tp16
Rp17
sS'w0'
p18
g8
(g12
S'\x9ek\x10\xfff\x00\xd2?'
p19
tp20
Rp21
sS'inf'
p22
Finf
sS'lambdaex'
p23
g8
(g12
S'\xa8\xc6K7\x89A\xe4?'
p24
tp25
Rp26
sS'C_OR03125'
p27
g8
(g12
S'~Cv\x18r0\x02@'
p28
tp29
Rp30
sS'nan'
p31
Fnan
sS'pi'
p32
F3.141592653589793
sS'True'
p33
I01
sS'infty'
p34
Finf
sS'None'
p35
NsS'D'
p36
g8
(g12
S'H\xe1z\x14\xaeOy@'
p37
tp38
Rp39
sS'C_OR06250'
p40
g8
(g12
S'~Cv\x18r0\x12@'
p41
tp42
Rp43
sS'r0'
p44
g8
(g12
S'q\xea>\x96\xf9\xc8\xcd?'
p45
tp46
Rp47
sS'little_endian'
p48
I01
sS'a'
p49
g8
(g12
S'w\xbe\x9f\x1a/\xdd\xe4?'
p50
tp51
Rp52
sS'False'
p53
I00
sS'n'
p54
g8
(g12
S'H\xe1z\x14\xaeG\xf5?'
p55
tp56
Rp57
sS'C_OR01562'
p58
g8
(g12
S'Sk\xab\xa3\xf4.\xf2?'
p59
tp60
Rp61
sS'newaxis'
p62
NsS'Inf'
p63
Finf
sS'e'
p64
F2.718281828459045
ssS'params'
p65
(lp66
ccopy_reg
_reconstructor
p67
(clmfit.parameter
Parameter
p68
c__builtin__
object
p69
Ntp70
Rp71
(g58
g8
(g12
S'Sk\xab\xa3\xf4.\xf2?'
p72
tp73
Rp74
I00
NNNI0
Ng74
tp75
bag67
(g68
g69
Ntp76
Rp77
(g27
g8
(g12
S'~Cv\x18r0\x02@'
p78
tp79
Rp80
I00
NNNI0
Ng80
tp81
bag67
(g68
g69
Ntp82
Rp83
(g40
g8
(g12
S'~Cv\x18r0\x12@'
p84
tp85
Rp86
I00
NNNI0
Ng86
tp87
bag67
(g68
g69
Ntp88
Rp89
(g36
g8
(g12
S'H\xe1z\x14\xaeOy@'
p90
tp91
Rp92
I00
NNNI0
Ng92
tp93
bag67
(g68
g69
Ntp94
Rp95
(g18
g8
(g12
S'\x9ek\x10\xfff\x00\xd2?'
p96
tp97
Rp98
I01
NF-inf
Finf
g8
(g12
S'\x7f\x97 ta*h?'
p99
tp100
Rp101
(dp102
g44
g8
(g12
S'\x0f\xea\xd8\xb5\x15\x1f\xe3\xbf'
p103
tp104
Rp105
sF0.32648237496733334
tp106
bag67
(g68
g69
Ntp107
Rp108
(g49
g8
(g12
S'w\xbe\x9f\x1a/\xdd\xe4?'
p109
tp110
Rp111
I00
NNNI0
Ng111
tp112
bag67
(g68
g69
Ntp113
Rp114
(g44
g8
(g12
S'q\xea>\x96\xf9\xc8\xcd?'
p115
tp116
Rp117
I01
NF-inf
Finf
g8
(g12
S'\xa4\r\xf1\xd5fB@?'
p118
tp119
Rp120
(dp121
g18
g8
(g12
S'\x0f\xea\xd8\xb5\x15\x1f\xe3\xbf'
p122
tp123
Rp124
sF0.14702637298466667
tp125
bag67
(g68
g69
Ntp126
Rp127
(g23
g8
(g12
S'\xa8\xc6K7\x89A\xe4?'
p128
tp129
Rp130
I00
NNNI0
Ng130
tp131
bag67
(g68
g69
Ntp132
Rp133
(g7
g8
(g12
S'\xa0\x1a/\xdd$\x06\xe5?'
p134
tp135
Rp136
I00
NNNI0
Ng136
tp137
bag67
(g68
g69
Ntp138
Rp139
(g54
g8
(g12
S'H\xe1z\x14\xaeG\xf5?'
p140
tp141
Rp142
I00
NNNI0
Ng142
tp143
bag67
(g68
g69
Ntp144
Rp145
(g5
F1.0
I00
NNNI0
NF1.0
tp146
basb.clmfit.parameter
Parameters
p0
(tRp1
(dp2
S'unique_symbols'
p3
(dp4
S'slope'
p5
F1.0
sS'NAN'
p6
Fnan
sS'lambdaem'
p7
cnumpy.core.multiarray
scalar
p8
(cnumpy
dtype
p9
(S'f8'
p10
I0
I1
tp11
Rp12
(I3
S'<'
p13
NNNI-1
I-1
I0
tp14
bS'\xa0\x1a/\xdd$\x06\xe5?'
p15
tp16
Rp17
sS'w0'
p18
g8
(g12
S'p9\xe7\xad\x86\xa4\xd3?'
p19
tp20
Rp21
sS'inf'
p22
Finf
sS'lambdaex'
p23
g8
(g12
S'\xa8\xc6K7\x89A\xe4?'
p24
tp25
Rp26
sS'C_OR03125'
p27
g8
(g12
S'~Cv\x18r0\x02@'
p28
tp29
Rp30
sS'nan'
p31
Fnan
sS'tf'
p32
g8
(g12
S'\x08\x9f\x9e\xb4l\xa2\xb0>'
p33
tp34
Rp35
sS'pi'
p36
F3.141592653589793
sS'True'
p37
I01
sS'infty'
p38
Finf
sS'None'
p39
NsS'D'
p40
g8
(g12
S'H\xe1z\x14\xaeOy@'
p41
tp42
Rp43
sS'F'
p44
g8
(g12
S'\x88pK\xd1\x07\xa5\xa3?'
p45
tp46
Rp47
sS'C_OR06250'
p48
g8
(g12
S'~Cv\x18r0\x12@'
p49
tp50
Rp51
sS'r0'
p52
g8
(g12
S'\xcdZ\xea\xc7n\xbb\xc5?'
p53
tp54
Rp55
sS'little_endian'
p56
I01
sS'a'
p57
g8
(g12
S'w\xbe\x9f\x1a/\xdd\xe4?'
p58
tp59
Rp60
sS'False'
p61
I00
sS'n'
p62
g8
(g12
S'H\xe1z\x14\xaeG\xf5?'
p63
tp64
Rp65
sS'C_OR01562'
p66
g8
(g12
S'Sk\xab\xa3\xf4.\xf2?'
p67
tp68
Rp69
sS'newaxis'
p70
NsS'Inf'
p71
Finf
sS'e'
p72
F2.718281828459045
ssS'params'
p73
(lp74
ccopy_reg
_reconstructor
p75
(clmfit.parameter
Parameter
p76
c__builtin__
object
p77
Ntp78
Rp79
(g66
g8
(g12
S'Sk\xab\xa3\xf4.\xf2?'
p80
tp81
Rp82
I00
NNNI0
Ng82
tp83
bag75
(g76
g77
Ntp84
Rp85
(g27
g8
(g12
S'~Cv\x18r0\x02@'
p86
tp87
Rp88
I00
NNNI0
Ng88
tp89
bag75
(g76
g77
Ntp90
Rp91
(g48
g8
(g12
S'~Cv\x18r0\x12@'
p92
tp93
Rp94
I00
NNNI0
Ng94
tp95
bag75
(g76
g77
Ntp96
Rp97
(g40
g8
(g12
S'H\xe1z\x14\xaeOy@'
p98
tp99
Rp100
I00
NNNI0
Ng100
tp101
bag75
(g76
g77
Ntp102
Rp103
(g18
g8
(g12
S'p9\xe7\xad\x86\xa4\xd3?'
p104
tp105
Rp106
I01
NF-inf
Finf
g8
(g12
S'\xa3\x98\xf8^\xd2\xc7g?'
p107
tp108
Rp109
(dp110
g32
g8
(g12
S'\x8d\xd1<\x16\xae\x85\xd3?'
p111
tp112
Rp113
sg52
g8
(g12
S'\x92\xb4\xc7(\t\xa4\xea\xbf'
p114
tp115
Rp116
sg44
g8
(g12
S'F\xa2\x97\xc6\x90q\x91\xbf'
p117
tp118
Rp119
sF0.3293721589823333
tp120
bag75
(g76
g77
Ntp121
Rp122
(g57
g8
(g12
S'w\xbe\x9f\x1a/\xdd\xe4?'
p123
tp124
Rp125
I00
NNNI0
Ng125
tp126
bag75
(g76
g77
Ntp127
Rp128
(g52
g8
(g12
S'\xcdZ\xea\xc7n\xbb\xc5?'
p129
tp130
Rp131
I01
NF-inf
Finf
g8
(g12
S']\xfd$\x80\xd2\x02B?'
p132
tp133
Rp134
(dp135
g32
g8
(g12
S'\xb8\xdaG8\xbc\xfe\xc3\xbf'
p136
tp137
Rp138
sg44
g8
(g12
S'q\xe5\xa0\xa5\xd7\xb2m?'
p139
tp140
Rp141
sg18
g8
(g12
S'\x93\xb4\xc7(\t\xa4\xea\xbf'
p142
tp143
Rp144
sF0.14662247390966668
tp145
bag75
(g76
g77
Ntp146
Rp147
(g23
g8
(g12
S'\xa8\xc6K7\x89A\xe4?'
p148
tp149
Rp150
I00
NNNI0
Ng150
tp151
bag75
(g76
g77
Ntp152
Rp153
(g7
g8
(g12
S'\xa0\x1a/\xdd$\x06\xe5?'
p154
tp155
Rp156
I00
NNNI0
Ng156
tp157
bag75
(g76
g77
Ntp158
Rp159
(g62
g8
(g12
S'H\xe1z\x14\xaeG\xf5?'
p160
tp161
Rp162
I00
NNNI0
Ng162
tp163
bag75
(g76
g77
Ntp164
Rp165
(g5
F1.0
I00
NNNI0
NF1.0
tp166
bag75
(g76
g77
Ntp167
Rp168
(g44
g8
(g12
S'\x88pK\xd1\x07\xa5\xa3?'
p169
tp170
Rp171
I01
NF0.0
F0.5
g8
(g12
S'Y\x15\x0b\x17(2\xa5?'
p172
tp173
Rp174
(dp175
g32
g8
(g12
S'\x86\xdb\x02\xd9h5\xe7\xbf'
p176
tp177
Rp178
sg52
g8
(g12
S'\xd1\xe0\xa0\xa5\xd7\xb2m?'
p179
tp180
Rp181
sg18
g8
(g12
S'\xcf\xa1\x97\xc6\x90q\x91\xbf'
p182
tp183
Rp184
sF0.044962198568333334
tp185
bag75
(g76
g77
Ntp186
Rp187
(g32
g8
(g12
S'\x08\x9f\x9e\xb4l\xa2\xb0>'
p188
tp189
Rp190
I01
NF1e-09
F0.0001
g8
(g12
S'%\xf9SN\xe0\x9f\xb9>'
p191
tp192
Rp193
(dp194
g44
g8
(g12
S'\x85\xdb\x02\xd9h5\xe7\xbf'
p195
tp196
Rp197
sg52
g8
(g12
S'\x9e\xdaG8\xbc\xfe\xc3\xbf'
p198
tp199
Rp200
sg18
g8
(g12
S'\x86\xd1<\x16\xae\x85\xd3?'
p201
tp202
Rp203
sF2.4501833772133333e-06
tp204
basb.clmfit.parameter
Parameters
p0
(tRp1
(dp2
S'unique_symbols'
p3
(dp4
S'slope'
p5
F1.0
sS'NAN'
p6
Fnan
sS'lambdaem'
p7
cnumpy.core.multiarray
scalar
p8
(cnumpy
dtype
p9
(S'f8'
p10
I0
I1
tp11
Rp12
(I3
S'<'
p13
NNNI-1
I-1
I0
tp14
bS'\xa0\x1a/\xdd$\x06\xe5?'
p15
tp16
Rp17
sS'w0'
p18
g8
(g12
S'\xde\xa2\xc0\xc9\xe5\xde\xd4?'
p19
tp20
Rp21
sS'inf'
p22
Finf
sS'lambdaex'
p23
g8
(g12
S'\xa8\xc6K7\x89A\xe4?'
p24
tp25
Rp26
sS'C_OR03125'
p27
g8
(g12
S'~Cv\x18r0\x02@'
p28
tp29
Rp30
sS'nan'
p31
Fnan
sS'tf'
p32
g8
(g12
S'/xH\xea\xe26\x1a?'
p33
tp34
Rp35
sS'pi'
p36
F3.141592653589793
sS'True'
p37
I01
sS'infty'
p38
Finf
sS'None'
p39
NsS'D'
p40
g8
(g12
S'H\xe1z\x14\xaeOy@'
p41
tp42
Rp43
sS'F'
p44
g8
(g12
S'\xf0i\x1c\x17\xa5m\xbf?'
p45
tp46
Rp47
sS'C_OR06250'
p48
g8
(g12
S'~Cv\x18r0\x12@'
p49
tp50
Rp51
sS'r0'
p52
g8
(g12
S'\xae\x1f0i\x02\x94\xce?'
p53
tp54
Rp55
sS'little_endian'
p56
I01
sS'a'
p57
g8
(g12
S'w\xbe\x9f\x1a/\xdd\xe4?'
p58
tp59
Rp60
sS'False'
p61
I00
sS'n'
p62
g8
(g12
S'H\xe1z\x14\xaeG\xf5?'
p63
tp64
Rp65
sS'C_OR01562'
p66
g8
(g12
S'Sk\xab\xa3\xf4.\xf2?'
p67
tp68
Rp69
sS'newaxis'
p70
NsS'Inf'
p71
Finf
sS'e'
p72
F2.718281828459045
ssS'params'
p73
(lp74
ccopy_reg
_reconstructor
p75
(clmfit.parameter
Parameter
p76
c__builtin__
object
p77
Ntp78
Rp79
(g66
g8
(g12
S'Sk\xab\xa3\xf4.\xf2?'
p80
tp81
Rp82
I00
NNNI0
Ng82
tp83
bag75
(g76
g77
Ntp84
Rp85
(g27
g8
(g12
S'~Cv\x18r0\x02@'
p86
tp87
Rp88
I00
NNNI0
Ng88
tp89
bag75
(g76
g77
Ntp90
Rp91
(g48
g8
(g12
S'~Cv\x18r0\x12@'
p92
tp93
Rp94
I00
NNNI0
Ng94
tp95
bag75
(g76
g77
Ntp96
Rp97
(g40
g8
(g12
S'H\xe1z\x14\xaeOy@'
p98
tp99
Rp100
I00
NNNI0
Ng100
tp101
bag75
(g76
g77
Ntp102
Rp103
(g18
g8
(g12
S'\xde\xa2\xc0\xc9\xe5\xde\xd4?'
p104
tp105
Rp106
I01
NF-inf
Finf
g8
(g12
S'\xd1\x84<{\xaf\x9f\x9a?'
p107
tp108
Rp109
(dp110
g32
g8
(g12
S'Z\x10\xf8\xe5^$\xe9\xbf'
p111
tp112
Rp113
sg52
g8
(g12
S'\x91\x8dmk\xb0\xa5r\xbf'
p114
tp115
Rp116
sg44
g8
(g12
S'%\xc6\xba,\x0f\xa0\xef?'
p117
tp118
Rp119
sF0.3293721589823333
tp120
bag75
(g76
g77
Ntp121
Rp122
(g57
g8
(g12
S'w\xbe\x9f\x1a/\xdd\xe4?'
p123
tp124
Rp125
I00
NNNI0
Ng125
tp126
bag75
(g76
g77
Ntp127
Rp128
(g52
g8
(g12
S'\xae\x1f0i\x02\x94\xce?'
p129
tp130
Rp131
I01
NF-inf
Finf
g8
(g12
S'FYgK\xa4\xf0Y?'
p132
tp133
Rp134
(dp135
g32
g8
(g12
S'G\x02\x9b\xb3\x89\x1c\xdf?'
p136
tp137
Rp138
sg44
g8
(g12
S'\x95P\xf4\\\xc9\x07\xc0?'
p139
tp140
Rp141
sg18
g8
(g12
S'\xd4\xccmk\xb0\xa5r\xbf'
p142
tp143
Rp144
sF0.14662247390966668
tp145
bag75
(g76
g77
Ntp146
Rp147
(g23
g8
(g12
S'\xa8\xc6K7\x89A\xe4?'
p148
tp149
Rp150
I00
NNNI0
Ng150
tp151
bag75
(g76
g77
Ntp152
Rp153
(g7
g8
(g12
S'\xa0\x1a/\xdd$\x06\xe5?'
p154
tp155
Rp156
I00
NNNI0
Ng156
tp157
bag75
(g76
g77
Ntp158
Rp159
(g62
g8
(g12
S'H\xe1z\x14\xaeG\xf5?'
p160
tp161
Rp162
I00
NNNI0
Ng162
tp163
bag75
(g76
g77
Ntp164
Rp165
(g5
F1.0
I00
NNNI0
NF1.0
tp166
bag75
(g76
g77
Ntp167
Rp168
(g44
g8
(g12
S'\xf0i\x1c\x17\xa5m\xbf?'
p169
tp170
Rp171
I01
NF0.0
F0.5
g8
(g12
S'\xed\xab\xf6\xfe\xd2\x87\xab?'
p172
tp173
Rp174
(dp175
g32
g8
(g12
S'?\xc6\xe2u\x99\x86\xe7\xbf'
p176
tp177
Rp178
sg52
g8
(g12
S'\x90R\xf4\\\xc9\x07\xc0?'
p179
tp180
Rp181
sg18
g8
(g12
S'\x11\xc6\xba,\x0f\xa0\xef?'
p182
tp183
Rp184
sF0.044962198568333334
tp185
bag75
(g76
g77
Ntp186
Rp187
(g32
g8
(g12
S'/xH\xea\xe26\x1a?'
p188
tp189
Rp190
I01
NF1e-09
F0.0001
g8
(g12
S'\xe1\x13\x19\xaf\x1b\x8e\xf9>'
p191
tp192
Rp193
(dp194
g44
g8
(g12
S'\x83\xc6\xe2u\x99\x86\xe7\xbf'
p195
tp196
Rp197
sg52
g8
(g12
S'~\x01\x9b\xb3\x89\x1c\xdf?'
p198
tp199
Rp200
sg18
g8
(g12
S'\x90\x10\xf8\xe5^$\xe9\xbf'
p201
tp202
Rp203
sF2.4501833772133333e-06
tp204
basb.