clmfit.parameter
Parameters
p0
(tRp1
(dp2
S'unique_symbols'
p3
(dp4
S'slope'
p5
cnumpy.core.multiarray
scalar
p6
(cnumpy
dtype
p7
(S'f8'
p8
I0
I1
tp9
Rp10
(I3
S'<'
p11
NNNI-1
I-1
I0
tp12
bS'\x9a\x81E/i\xdd\xf2?'
p13
tp14
Rp15
sS'infty'
p16
Finf
sS'None'
p17
NsS'False'
p18
I00
sS'D'
p19
g6
(g10
S'fffffVx@'
p20
tp21
Rp22
sS'NAN'
p23
Fnan
sS'nan'
p24
Fnan
sS'wxy'
p25
g6
(g10
S'V\x8b\xc9\xde|5\xd0?'
p26
tp27
Rp28
sS'Inf'
p29
Finf
sS'little_endian'
p30
I01
sS'C_BR03125'
p31
g6
(g10
S'333333\x0b@'
p32
tp33
Rp34
sS'wz'
p35
g6
(g10
S'k\xba8\x04d\xde\r@'
p36
tp37
Rp38
sS'newaxis'
p39
NsS'e'
p40
F2.718281828459045
sS'inf'
p41
Finf
sS'pi'
p42
F3.141592653589793
sS'True'
p43
I01
sS'C_BR01562'
p44
g6
(g10
S'333333\xfb?'
p45
tp46
Rp47
ssS'params'
p48
(lp49
ccopy_reg
_reconstructor
p50
(clmfit.parameter
Parameter
p51
c__builtin__
object
p52
Ntp53
Rp54
(g44
g6
(g10
S'333333\xfb?'
p55
tp56
Rp57
I00
NNNI0
Ng57
tp58
bag50
(g51
g52
Ntp59
Rp60
(g31
g6
(g10
S'333333\x0b@'
p61
tp62
Rp63
I00
NNNI0
Ng63
tp64
bag50
(g51
g52
Ntp65
Rp66
(g19
g6
(g10
S'fffffVx@'
p67
tp68
Rp69
I00
NNNI0
Ng69
tp70
bag50
(g51
g52
Ntp71
Rp72
(g25
g6
(g10
S'V\x8b\xc9\xde|5\xd0?'
p73
tp74
Rp75
I01
NF-inf
Finf
g6
(g10
S'\xc5\x18\xd1\xa4\x1d9]?'
p76
tp77
Rp78
(dp79
g5
g6
(g10
S'E\x92\xb7\xfd\x03\xab\xdd?'
p80
tp81
Rp82
sg35
g6
(g10
S'\xa9\xbdH\xdd\xcbq\xe0\xbf'
p83
tp84
Rp85
sF0.25
tp86
bag50
(g51
g52
Ntp87
Rp88
(g35
g6
(g10
S'k\xba8\x04d\xde\r@'
p89
tp90
Rp91
I01
NF-inf
Finf
g6
(g10
S'r\xef\xc6\xc4L\x98\xda?'
p92
tp93
Rp94
(dp95
g5
g6
(g10
S'(y\xdemm\xee\xef\xbf'
p96
tp97
Rp98
sg25
g6
(g10
S'\x82\xbdH\xdd\xcbq\xe0\xbf'
p99
tp100
Rp101
sF0.7
tp102
bag50
(g51
g52
Ntp103
Rp104
(g5
g6
(g10
S'\x9a\x81E/i\xdd\xf2?'
p105
tp106
Rp107
I01
NF-inf
Finf
g6
(g10
S'\xd2Z\xab\xeb\xe3\n\xc0?'
p108
tp109
Rp110
(dp111
g25
g6
(g10
S'\x1a\x92\xb7\xfd\x03\xab\xdd?'
p112
tp113
Rp114
sg35
g6
(g10
S'&y\xdemm\xee\xef\xbf'
p115
tp116
Rp117
sF1.0
tp118
basb.clmfit.parameter
Parameters
p0
(tRp1
(dp2
S'unique_symbols'
p3
(dp4
S'slope'
p5
cnumpy.core.multiarray
scalar
p6
(cnumpy
dtype
p7
(S'f8'
p8
I0
I1
tp9
Rp10
(I3
S'<'
p11
NNNI-1
I-1
I0
tp12
bS'[Q\x9b>N\x1e\xf5?'
p13
tp14
Rp15
sS'infty'
p16
Finf
sS'None'
p17
NsS'False'
p18
I00
sS'D'
p19
g6
(g10
S'fffffVx@'
p20
tp21
Rp22
sS'F'
p23
g6
(g10
S'\x8ce\xc2*\xe3\xa1\xb8?'
p24
tp25
Rp26
sS'NAN'
p27
Fnan
sS'nan'
p28
Fnan
sS'wxy'
p29
g6
(g10
S'\xd3\xce\x1c\xd6)\xa5\xd0?'
p30
tp31
Rp32
sS'Inf'
p33
Finf
sS'little_endian'
p34
I01
sS'C_BR03125'
p35
g6
(g10
S'333333\x0b@'
p36
tp37
Rp38
sS'wz'
p39
g6
(g10
S'"+\x12\x87\x10\x1f\n@'
p40
tp41
Rp42
sS'newaxis'
p43
NsS'tf'
p44
g6
(g10
S'Q\x06Cw\xda\xf9\xd0>'
p45
tp46
Rp47
sS'e'
p48
F2.718281828459045
sS'inf'
p49
Finf
sS'pi'
p50
F3.141592653589793
sS'True'
p51
I01
sS'C_BR01562'
p52
g6
(g10
S'333333\xfb?'
p53
tp54
Rp55
ssS'params'
p56
(lp57
ccopy_reg
_reconstructor
p58
(clmfit.parameter
Parameter
p59
c__builtin__
object
p60
Ntp61
Rp62
(g52
g6
(g10
S'333333\xfb?'
p63
tp64
Rp65
I00
NNNI0
Ng65
tp66
bag58
(g59
g60
Ntp67
Rp68
(g35
g6
(g10
S'333333\x0b@'
p69
tp70
Rp71
I00
NNNI0
Ng71
tp72
bag58
(g59
g60
Ntp73
Rp74
(g19
g6
(g10
S'fffffVx@'
p75
tp76
Rp77
I00
NNNI0
Ng77
tp78
bag58
(g59
g60
Ntp79
Rp80
(g29
g6
(g10
S'\xd3\xce\x1c\xd6)\xa5\xd0?'
p81
tp82
Rp83
I01
NF-inf
Finf
g6
(g10
S'y\xb6z\xb6\xa9_h?'
p84
tp85
Rp86
(dp87
g5
g6
(g10
S'ix\xa5Hb\xa0\xe0?'
p88
tp89
Rp90
sg44
g6
(g10
S'\xaf\x8fN\xe8:8\xe3?'
p91
tp92
Rp93
sg39
g6
(g10
S'\xf8\xb2,\x91\x06\xb4\xe2\xbf'
p94
tp95
Rp96
sg23
g6
(g10
S'\xc0M\x8e+sp\xd4?'
p97
tp98
Rp99
sF0.25
tp100
bag58
(g59
g60
Ntp101
Rp102
(g39
g6
(g10
S'"+\x12\x87\x10\x1f\n@'
p103
tp104
Rp105
I01
NF-inf
Finf
g6
(g10
S'\xcb\x10\\\xea\xcb\xd5\xd4?'
p106
tp107
Rp108
(dp109
g5
g6
(g10
S'ro\x06!\xa3\xe0\xef\xbf'
p110
tp111
Rp112
sg44
g6
(g10
S'!\xf9\x19\xaa\xe1\x9f\xce\xbf'
p113
tp114
Rp115
sg29
g6
(g10
S'\r\xb3,\x91\x06\xb4\xe2\xbf'
p116
tp117
Rp118
sg23
g6
(g10
S'\\\xe6p;\xafM\xc5\xbf'
p119
tp120
Rp121
sF0.7
tp122
bag58
(g59
g60
Ntp123
Rp124
(g5
g6
(g10
S'[Q\x9b>N\x1e\xf5?'
p125
tp126
Rp127
I01
NF-inf
Finf
g6
(g10
S'O\x9f\x97\xfc\xd2B\xbf?'
p128
tp129
Rp130
(dp131
g44
g6
(g10
S'b6vH\x87c\xca?'
p132
tp133
Rp134
sg23
g6
(g10
S'\xdd\x15{\xbf\xfb\xb4\xc2?'
p135
tp136
Rp137
sg29
g6
(g10
S'\x84x\xa5Hb\xa0\xe0?'
p138
tp139
Rp140
sg39
g6
(g10
S'vo\x06!\xa3\xe0\xef\xbf'
p141
tp142
Rp143
sF1.0
tp144
bag58
(g59
g60
Ntp145
Rp146
(g23
g6
(g10
S'\x8ce\xc2*\xe3\xa1\xb8?'
p147
tp148
Rp149
I01
NF0.0
F0.5
g6
(g10
S'\xf5fj\xc1\xe7q\x95?'
p150
tp151
Rp152
(dp153
g5
g6
(g10
S'\xdf\x15{\xbf\xfb\xb4\xc2?'
p154
tp155
Rp156
sg44
g6
(g10
S'\xecA\x15\x15H\xea\xd2\xbf'
p157
tp158
Rp159
sg29
g6
(g10
S'\xcaM\x8e+sp\xd4?'
p160
tp161
Rp162
sg39
g6
(g10
S'`\xe6p;\xafM\xc5\xbf'
p163
tp164
Rp165
sF0.05
tp166
bag58
(g59
g60
Ntp167
Rp168
(g44
g6
(g10
S'Q\x06Cw\xda\xf9\xd0>'
p169
tp170
Rp171
I01
NF1e-09
F0.0001
g6
(g10
S'\xe1\x16\xbc(\xf2\xea\xbe>'
p172
tp173
Rp174
(dp175
g5
g6
(g10
S'\xa45vH\x87c\xca?'
p176
tp177
Rp178
sg23
g6
(g10
S'\xf8A\x15\x15H\xea\xd2\xbf'
p179
tp180
Rp181
sg29
g6
(g10
S'\x99\x8fN\xe8:8\xe3?'
p182
tp183
Rp184
sg39
g6
(g10
S'e\xf8\x19\xaa\xe1\x9f\xce\xbf'
p185
tp186
Rp187
sF1e-06
tp188
basb.clmfit.parameter
Parameters
p0
(tRp1
(dp2
S'unique_symbols'
p3
(dp4
S'slope'
p5
cnumpy.core.multiarray
scalar
p6
(cnumpy
dtype
p7
(S'f8'
p8
I0
I1
tp9
Rp10
(I3
S'<'
p11
NNNI-1
I-1
I0
tp12
bS'\x14\xbb\xc0\xb1\x92\x82\xf7?'
p13
tp14
Rp15
sS'NAN'
p16
Fnan
sS'lambdaem'
p17
g6
(g10
S'\xcf\xf7S\xe3\xa5\x9b\xe0?'
p18
tp19
Rp20
sS'w0'
p21
g6
(g10
S'\xe6\x86AI\x1f\x9d\xc8?'
p22
tp23
Rp24
sS'lambdaex'
p25
g6
(g10
S'\x08\xac\x1cZd;\xdf?'
p26
tp27
Rp28
sS'inf'
p29
Finf
sS'nan'
p30
Fnan
sS'C_BR01562'
p31
g6
(g10
S'333333\xfb?'
p32
tp33
Rp34
sS'C_BR03125'
p35
g6
(g10
S'333333\x0b@'
p36
tp37
Rp38
sS'pi'
p39
F3.141592653589793
sS'True'
p40
I01
sS'infty'
p41
Finf
sS'None'
p42
NsS'D'
p43
g6
(g10
S'fffffVx@'
p44
tp45
Rp46
sS'r0'
p47
g6
(g10
S'\xda\x81\x8e\x89\x86\r\xc0?'
p48
tp49
Rp50
sS'little_endian'
p51
I01
sS'a'
p52
g6
(g10
S'Nb\x10X9\xb4\xe0?'
p53
tp54
Rp55
sS'False'
p56
I00
sS'n'
p57
g6
(g10
S'H\xe1z\x14\xaeG\xf5?'
p58
tp59
Rp60
sS'newaxis'
p61
NsS'Inf'
p62
Finf
sS'e'
p63
F2.718281828459045
ssS'params'
p64
(lp65
ccopy_reg
_reconstructor
p66
(clmfit.parameter
Parameter
p67
c__builtin__
object
p68
Ntp69
Rp70
(g31
g6
(g10
S'333333\xfb?'
p71
tp72
Rp73
I00
NNNI0
Ng73
tp74
bag66
(g67
g68
Ntp75
Rp76
(g35
g6
(g10
S'333333\x0b@'
p77
tp78
Rp79
I00
NNNI0
Ng79
tp80
bag66
(g67
g68
Ntp81
Rp82
(g43
g6
(g10
S'fffffVx@'
p83
tp84
Rp85
I00
NNNI0
Ng85
tp86
bag66
(g67
g68
Ntp87
Rp88
(g21
g6
(g10
S'\xe6\x86AI\x1f\x9d\xc8?'
p89
tp90
Rp91
I01
NF-inf
Finf
g6
(g10
S'\xda-\x11\x89\xbbwp?'
p92
tp93
Rp94
(dp95
g5
g6
(g10
S'\x92P/1c\x93\xe7?'
p96
tp97
Rp98
sg47
g6
(g10
S'\x07\xdc\xcc\x15w{\xe8\xbf'
p99
tp100
Rp101
sF0.2041506942892748
tp102
bag66
(g67
g68
Ntp103
Rp104
(g52
g6
(g10
S'Nb\x10X9\xb4\xe0?'
p105
tp106
Rp107
I00
NNNI0
Ng107
tp108
bag66
(g67
g68
Ntp109
Rp110
(g47
g6
(g10
S'\xda\x81\x8e\x89\x86\r\xc0?'
p111
tp112
Rp113
I01
NF-inf
Finf
g6
(g10
S'\x7f\x1d\xa6J/\xabh?'
p114
tp115
Rp116
(dp117
g5
g6
(g10
S'\xa9\xff%\x18^\xca\xef\xbf'
p118
tp119
Rp120
sg21
g6
(g10
S'\x0f\xdc\xcc\x15w{\xe8\xbf'
p121
tp122
Rp123
sF0.11448360807866297
tp124
bag66
(g67
g68
Ntp125
Rp126
(g25
g6
(g10
S'\x08\xac\x1cZd;\xdf?'
p127
tp128
Rp129
I00
NNNI0
Ng129
tp130
bag66
(g67
g68
Ntp131
Rp132
(g17
g6
(g10
S'\xcf\xf7S\xe3\xa5\x9b\xe0?'
p133
tp134
Rp135
I00
NNNI0
Ng135
tp136
bag66
(g67
g68
Ntp137
Rp138
(g57
g6
(g10
S'H\xe1z\x14\xaeG\xf5?'
p139
tp140
Rp141
I00
NNNI0
Ng141
tp142
bag66
(g67
g68
Ntp143
Rp144
(g5
g6
(g10
S'\x14\xbb\xc0\xb1\x92\x82\xf7?'
p145
tp146
Rp147
I01
NF-inf
Finf
g6
(g10
S'\xc5\xaa\x91\x7f\t\xfa\xa6?'
p148
tp149
Rp150
(dp151
g47
g6
(g10
S'\xa9\xff%\x18^\xca\xef\xbf'
p152
tp153
Rp154
sg21
g6
(g10
S'\x89P/1c\x93\xe7?'
p155
tp156
Rp157
sF1.0
tp158
basb.clmfit.parameter
Parameters
p0
(tRp1
(dp2
S'unique_symbols'
p3
(dp4
S'slope'
p5
cnumpy.core.multiarray
scalar
p6
(cnumpy
dtype
p7
(S'f8'
p8
I0
I1
tp9
Rp10
(I3
S'<'
p11
NNNI-1
I-1
I0
tp12
bS'\xe0Pi\x0e4V\xfa?'
p13
tp14
Rp15
sS'NAN'
p16
Fnan
sS'lambdaem'
p17
g6
(g10
S'\xcf\xf7S\xe3\xa5\x9b\xe0?'
p18
tp19
Rp20
sS'w0'
p21
g6
(g10
S'\x94|\x17(wT\xc7?'
p22
tp23
Rp24
sS'lambdaex'
p25
g6
(g10
S'\x08\xac\x1cZd;\xdf?'
p26
tp27
Rp28
sS'inf'
p29
Finf
sS'nan'
p30
Fnan
sS'C_BR01562'
p31
g6
(g10
S'333333\xfb?'
p32
tp33
Rp34
sS'C_BR03125'
p35
g6
(g10
S'333333\x0b@'
p36
tp37
Rp38
sS'pi'
p39
F3.141592653589793
sS'True'
p40
I01
sS'infty'
p41
Finf
sS'None'
p42
NsS'D'
p43
g6
(g10
S'fffffVx@'
p44
tp45
Rp46
sS'r0'
p47
g6
(g10
S'\xfb\x1ao\xff\xdb\xc8\xc3?'
p48
tp49
Rp50
sS'little_endian'
p51
I01
sS'a'
p52
g6
(g10
S'Nb\x10X9\xb4\xe0?'
p53
tp54
Rp55
sS'False'
p56
I00
sS'n'
p57
g6
(g10
S'H\xe1z\x14\xaeG\xf5?'
p58
tp59
Rp60
sS'newaxis'
p61
NsS'Inf'
p62
Finf
sS'e'
p63
F2.718281828459045
ssS'params'
p64
(lp65
ccopy_reg
_reconstructor
p66
(clmfit.parameter
Parameter
p67
c__builtin__
object
p68
Ntp69
Rp70
(g31
g6
(g10
S'333333\xfb?'
p71
tp72
Rp73
I00
NNNI0
Ng73
tp74
bag66
(g67
g68
Ntp75
Rp76
(g35
g6
(g10
S'333333\x0b@'
p77
tp78
Rp79
I00
NNNI0
Ng79
tp80
bag66
(g67
g68
Ntp81
Rp82
(g43
g6
(g10
S'fffffVx@'
p83
tp84
Rp85
I00
NNNI0
Ng85
tp86
bag66
(g67
g68
Ntp87
Rp88
(g21
g6
(g10
S'\x94|\x17(wT\xc7?'
p89
tp90
Rp91
I01
NF-inf
Finf
g6
(g10
S'B\xc2;*\x7f"p?'
p92
tp93
Rp94
(dp95
g5
g6
(g10
S'\xa3\x04\xcb\xc7\xaf\x95\xe5?'
p96
tp97
Rp98
sg47
g6
(g10
S'\xd1\\9^\xf9Q\xe5\xbf'
p99
tp100
Rp101
sF0.2041506942892748
tp102
bag66
(g67
g68
Ntp103
Rp104
(g52
g6
(g10
S'Nb\x10X9\xb4\xe0?'
p105
tp106
Rp107
I00
NNNI0
Ng107
tp108
bag66
(g67
g68
Ntp109
Rp110
(g47
g6
(g10
S'\xfb\x1ao\xff\xdb\xc8\xc3?'
p111
tp112
Rp113
I01
NF-inf
Finf
g6
(g10
S'\xa6\xe2oNs7h?'
p114
tp115
Rp116
(dp117
g5
g6
(g10
S'W\xecP\xa6R\xbe\xef\xbf'
p118
tp119
Rp120
sg21
g6
(g10
S'\xd2\\9^\xf9Q\xe5\xbf'
p121
tp122
Rp123
sF0.11448360807866297
tp124
bag66
(g67
g68
Ntp125
Rp126
(g25
g6
(g10
S'\x08\xac\x1cZd;\xdf?'
p127
tp128
Rp129
I00
NNNI0
Ng129
tp130
bag66
(g67
g68
Ntp131
Rp132
(g17
g6
(g10
S'\xcf\xf7S\xe3\xa5\x9b\xe0?'
p133
tp134
Rp135
I00
NNNI0
Ng135
tp136
bag66
(g67
g68
Ntp137
Rp138
(g57
g6
(g10
S'H\xe1z\x14\xaeG\xf5?'
p139
tp140
Rp141
I00
NNNI0
Ng141
tp142
bag66
(g67
g68
Ntp143
Rp144
(g5
g6
(g10
S'\xe0Pi\x0e4V\xfa?'
p145
tp146
Rp147
I01
NF-inf
Finf
g6
(g10
S'\x05\xa7YB\xff\x96\xa6?'
p148
tp149
Rp150
(dp151
g47
g6
(g10
S'W\xecP\xa6R\xbe\xef\xbf'
p152
tp153
Rp154
sg21
g6
(g10
S'\xa3\x04\xcb\xc7\xaf\x95\xe5?'
p155
tp156
Rp157
sF1.0
tp158
basb.clmfit.parameter
Parameters
p0
(tRp1
(dp2
S'unique_symbols'
p3
(dp4
S'slope'
p5
cnumpy.core.multiarray
scalar
p6
(cnumpy
dtype
p7
(S'f8'
p8
I0
I1
tp9
Rp10
(I3
S'<'
p11
NNNI-1
I-1
I0
tp12
bS'L%\xf9\x12\xfe\xe1\xf7?'
p13
tp14
Rp15
sS'NAN'
p16
Fnan
sS'lambdaem'
p17
g6
(g10
S'\xcf\xf7S\xe3\xa5\x9b\xe0?'
p18
tp19
Rp20
sS'w0'
p21
g6
(g10
S'\t^-\xbd\xd6<\xc9?'
p22
tp23
Rp24
sS'lambdaex'
p25
g6
(g10
S'\x08\xac\x1cZd;\xdf?'
p26
tp27
Rp28
sS'inf'
p29
Finf
sS'nan'
p30
Fnan
sS'C_BR01562'
p31
g6
(g10
S'333333\xfb?'
p32
tp33
Rp34
sS'C_BR03125'
p35
g6
(g10
S'333333\x0b@'
p36
tp37
Rp38
sS'tf'
p39
g6
(g10
S'\xc0!\xe0zb!\xbc>'
p40
tp41
Rp42
sS'pi'
p43
F3.141592653589793
sS'True'
p44
I01
sS'infty'
p45
Finf
sS'None'
p46
NsS'D'
p47
g6
(g10
S'fffffVx@'
p48
tp49
Rp50
sS'F'
p51
g6
(g10
S'p\xcbe\xc6\xdb\xa0\xac?'
p52
tp53
Rp54
sS'r0'
p55
g6
(g10
S'N-3\xba%\xb6\xbf?'
p56
tp57
Rp58
sS'little_endian'
p59
I01
sS'a'
p60
g6
(g10
S'Nb\x10X9\xb4\xe0?'
p61
tp62
Rp63
sS'False'
p64
I00
sS'n'
p65
g6
(g10
S'H\xe1z\x14\xaeG\xf5?'
p66
tp67
Rp68
sS'newaxis'
p69
NsS'Inf'
p70
Finf
sS'e'
p71
F2.718281828459045
ssS'params'
p72
(lp73
ccopy_reg
_reconstructor
p74
(clmfit.parameter
Parameter
p75
c__builtin__
object
p76
Ntp77
Rp78
(g31
g6
(g10
S'333333\xfb?'
p79
tp80
Rp81
I00
NNNI0
Ng81
tp82
bag74
(g75
g76
Ntp83
Rp84
(g35
g6
(g10
S'333333\x0b@'
p85
tp86
Rp87
I00
NNNI0
Ng87
tp88
bag74
(g75
g76
Ntp89
Rp90
(g47
g6
(g10
S'fffffVx@'
p91
tp92
Rp93
I00
NNNI0
Ng93
tp94
bag74
(g75
g76
Ntp95
Rp96
(g21
g6
(g10
S'\t^-\xbd\xd6<\xc9?'
p97
tp98
Rp99
I01
NF-inf
Finf
g6
(g10
S'\x86\xc8\x93C\xd1Yx?'
p100
tp101
Rp102
(dp103
g5
g6
(g10
S'K\x9e\xbc;j\x1d\xe8?'
p104
tp105
Rp106
sg39
g6
(g10
S'n\x03U\xdf\xa4&\xe1?'
p107
tp108
Rp109
sg55
g6
(g10
S'\x1e\xb5\xee\xafX\xca\xe8\xbf'
p110
tp111
Rp112
sg51
g6
(g10
S'\x14\xd1\xad\x0f\x99\x93\xc5?'
p113
tp114
Rp115
sF0.21193897599416217
tp116
bag74
(g75
g76
Ntp117
Rp118
(g60
g6
(g10
S'Nb\x10X9\xb4\xe0?'
p119
tp120
Rp121
I00
NNNI0
Ng121
tp122
bag74
(g75
g76
Ntp123
Rp124
(g55
g6
(g10
S'N-3\xba%\xb6\xbf?'
p125
tp126
Rp127
I01
NF-inf
Finf
g6
(g10
S'\xe7#4\x8f\x8c|k?'
p128
tp129
Rp130
(dp131
g5
g6
(g10
S'g\xc1\x10#-\xcf\xef\xbf'
p132
tp133
Rp134
sg39
g6
(g10
S'a=\xfbb5\x97\xd0\xbf'
p135
tp136
Rp137
sg51
g6
(g10
S'O\xe6N\x7fk\x99\xbe\xbf'
p138
tp139
Rp140
sg21
g6
(g10
S'\x1f\xb5\xee\xafX\xca\xe8\xbf'
p141
tp142
Rp143
sF0.11417879517501707
tp144
bag74
(g75
g76
Ntp145
Rp146
(g25
g6
(g10
S'\x08\xac\x1cZd;\xdf?'
p147
tp148
Rp149
I00
NNNI0
Ng149
tp150
bag74
(g75
g76
Ntp151
Rp152
(g17
g6
(g10
S'\xcf\xf7S\xe3\xa5\x9b\xe0?'
p153
tp154
Rp155
I00
NNNI0
Ng155
tp156
bag74
(g75
g76
Ntp157
Rp158
(g65
g6
(g10
S'H\xe1z\x14\xaeG\xf5?'
p159
tp160
Rp161
I00
NNNI0
Ng161
tp162
bag74
(g75
g76
Ntp163
Rp164
(g5
g6
(g10
S'L%\xf9\x12\xfe\xe1\xf7?'
p165
tp166
Rp167
I01
NF-inf
Finf
g6
(g10
S'\x02\xcb\x06e9\x9f\xa9?'
p168
tp169
Rp170
(dp171
g39
g6
(g10
S'!`\x96\xdbQ\x03\xd1?'
p172
tp173
Rp174
sg51
g6
(g10
S' G\xe2Y\x1f\x94\xbd?'
p175
tp176
Rp177
sg55
g6
(g10
S'f\xc1\x10#-\xcf\xef\xbf'
p178
tp179
Rp180
sg21
g6
(g10
S'I\x9e\xbc;j\x1d\xe8?'
p181
tp182
Rp183
sF1.0
tp184
bag74
(g75
g76
Ntp185
Rp186
(g51
g6
(g10
S'p\xcbe\xc6\xdb\xa0\xac?'
p187
tp188
Rp189
I01
NF0.0
F0.5
g6
(g10
S'\x02aW\xce\xf1\x9a\xa1?'
p190
tp191
Rp192
(dp193
g5
g6
(g10
S'\x1fG\xe2Y\x1f\x94\xbd?'
p194
tp195
Rp196
sg39
g6
(g10
S'\xf8i\xd7\xf5\xeaS\xde\xbf'
p197
tp198
Rp199
sg55
g6
(g10
S'M\xe6N\x7fk\x99\xbe\xbf'
p200
tp201
Rp202
sg21
g6
(g10
S'\x11\xd1\xad\x0f\x99\x93\xc5?'
p203
tp204
Rp205
sF0.07407344161616564
tp206
bag74
(g75
g76
Ntp207
Rp208
(g39
g6
(g10
S'\xc0!\xe0zb!\xbc>'
p209
tp210
Rp211
I01
NF1e-09
F0.0001
g6
(g10
S"\x8d\xea\xc7\x03'\x1d\xc0>"
p212
tp213
Rp214
(dp215
g5
g6
(g10
S'\x0c`\x96\xdbQ\x03\xd1?'
p216
tp217
Rp218
sg51
g6
(g10
S'\xfai\xd7\xf5\xeaS\xde\xbf'
p219
tp220
Rp221
sg55
g6
(g10
S'K=\xfbb5\x97\xd0\xbf'
p222
tp223
Rp224
sg21
g6
(g10
S'g\x03U\xdf\xa4&\xe1?'
p225
tp226
Rp227
sF3.2934160257431025e-06
tp228
basb.clmfit.parameter
Parameters
p0
(tRp1
(dp2
S'unique_symbols'
p3
(dp4
S'slope'
p5
cnumpy.core.multiarray
scalar
p6
(cnumpy
dtype
p7
(S'f8'
p8
I0
I1
tp9
Rp10
(I3
S'<'
p11
NNNI-1
I-1
I0
tp12
bS'\xfc\xf4\x7f\xaa\xa2\x8a\xfa?'
p13
tp14
Rp15
sS'NAN'
p16
Fnan
sS'lambdaem'
p17
g6
(g10
S'\xcf\xf7S\xe3\xa5\x9b\xe0?'
p18
tp19
Rp20
sS'w0'
p21
g6
(g10
S'\xca\x8f\xee\xfc\x84\xb6\xc7?'
p22
tp23
Rp24
sS'lambdaex'
p25
g6
(g10
S'\x08\xac\x1cZd;\xdf?'
p26
tp27
Rp28
sS'inf'
p29
Finf
sS'nan'
p30
Fnan
sS'C_BR01562'
p31
g6
(g10
S'333333\xfb?'
p32
tp33
Rp34
sS'C_BR03125'
p35
g6
(g10
S'333333\x0b@'
p36
tp37
Rp38
sS'tf'
p39
g6
(g10
S'_\x12\x08\tI\x9f\xb1>'
p40
tp41
Rp42
sS'pi'
p43
F3.141592653589793
sS'True'
p44
I01
sS'infty'
p45
Finf
sS'None'
p46
NsS'D'
p47
g6
(g10
S'fffffVx@'
p48
tp49
Rp50
sS'F'
p51
g6
(g10
S'8\xf1\xf6\xe8x\xd6\xa9?'
p52
tp53
Rp54
sS'r0'
p55
g6
(g10
S'\xe6\xfa\x951\x9d\xb1\xc3?'
p56
tp57
Rp58
sS'little_endian'
p59
I01
sS'a'
p60
g6
(g10
S'Nb\x10X9\xb4\xe0?'
p61
tp62
Rp63
sS'False'
p64
I00
sS'n'
p65
g6
(g10
S'H\xe1z\x14\xaeG\xf5?'
p66
tp67
Rp68
sS'newaxis'
p69
NsS'Inf'
p70
Finf
sS'e'
p71
F2.718281828459045
ssS'params'
p72
(lp73
ccopy_reg
_reconstructor
p74
(clmfit.parameter
Parameter
p75
c__builtin__
object
p76
Ntp77
Rp78
(g31
g6
(g10
S'333333\xfb?'
p79
tp80
Rp81
I00
NNNI0
Ng81
tp82
bag74
(g75
g76
Ntp83
Rp84
(g35
g6
(g10
S'333333\x0b@'
p85
tp86
Rp87
I00
NNNI0
Ng87
tp88
bag74
(g75
g76
Ntp89
Rp90
(g47
g6
(g10
S'fffffVx@'
p91
tp92
Rp93
I00
NNNI0
Ng93
tp94
bag74
(g75
g76
Ntp95
Rp96
(g21
g6
(g10
S'\xca\x8f\xee\xfc\x84\xb6\xc7?'
p97
tp98
Rp99
I01
NF-inf
Finf
g6
(g10
S'\xbc\xdf1\x85\xc0\xe5u?'
p100
tp101
Rp102
(dp103
g5
g6
(g10
S'_&\xc5\xd4M\n\xe6?'
p104
tp105
Rp106
sg39
g6
(g10
S'\xed \x03\x81\xf6\xe8\xde?'
p107
tp108
Rp109
sg55
g6
(g10
S'T\x15\x03Y\x01?\xe5\xbf'
p110
tp111
Rp112
sg51
g6
(g10
S'\x95\x9dVa1\xa9\xaf?'
p113
tp114
Rp115
sF0.21193897599416217
tp116
bag74
(g75
g76
Ntp117
Rp118
(g60
g6
(g10
S'Nb\x10X9\xb4\xe0?'
p119
tp120
Rp121
I00
NNNI0
Ng121
tp122
bag74
(g75
g76
Ntp123
Rp124
(g55
g6
(g10
S'\xe6\xfa\x951\x9d\xb1\xc3?'
p125
tp126
Rp127
I01
NF-inf
Finf
g6
(g10
S'\xcev\xdd\xf1Y\x9bi?'
p128
tp129
Rp130
(dp131
g5
g6
(g10
S'\xef)\x8d\xa6 \xba\xef\xbf'
p132
tp133
Rp134
sg39
g6
(g10
S'\xe3t\xbc*\x01{\xc5\xbf'
p135
tp136
Rp137
sg51
g6
(g10
S's+C\x01?\xb3\xa7\xbf'
p138
tp139
Rp140
sg21
g6
(g10
S'S\x15\x03Y\x01?\xe5\xbf'
p141
tp142
Rp143
sF0.11417879517501707
tp144
bag74
(g75
g76
Ntp145
Rp146
(g25
g6
(g10
S'\x08\xac\x1cZd;\xdf?'
p147
tp148
Rp149
I00
NNNI0
Ng149
tp150
bag74
(g75
g76
Ntp151
Rp152
(g17
g6
(g10
S'\xcf\xf7S\xe3\xa5\x9b\xe0?'
p153
tp154
Rp155
I00
NNNI0
Ng155
tp156
bag74
(g75
g76
Ntp157
Rp158
(g65
g6
(g10
S'H\xe1z\x14\xaeG\xf5?'
p159
tp160
Rp161
I00
NNNI0
Ng161
tp162
bag74
(g75
g76
Ntp163
Rp164
(g5
g6
(g10
S'\xfc\xf4\x7f\xaa\xa2\x8a\xfa?'
p165
tp166
Rp167
I01
NF-inf
Finf
g6
(g10
S'\x8f\xde\x8a\x02\xa1\x1c\xa8?'
p168
tp169
Rp170
(dp171
g39
g6
(g10
S'n\xe9\xea:k\xb8\xca?'
p172
tp173
Rp174
sg51
g6
(g10
S'\xce\xd7\xa4\x91|\x81\xa7?'
p175
tp176
Rp177
sg55
g6
(g10
S'\xef)\x8d\xa6 \xba\xef\xbf'
p178
tp179
Rp180
sg21
g6
(g10
S'b&\xc5\xd4M\n\xe6?'
p181
tp182
Rp183
sF1.0
tp184
bag74
(g75
g76
Ntp185
Rp186
(g51
g6
(g10
S'8\xf1\xf6\xe8x\xd6\xa9?'
p187
tp188
Rp189
I01
NF0.0
F0.5
g6
(g10
S'##\x15\xbc\xd7\x92\xa7?'
p190
tp191
Rp192
(dp193
g5
g6
(g10
S'4\xd8\xa4\x91|\x81\xa7?'
p194
tp195
Rp196
sg39
g6
(g10
S"\x0e'D\x94\xcdT\xe3\xbf"
p197
tp198
Rp199
sg55
g6
(g10
S'\xd2+C\x01?\xb3\xa7\xbf'
p200
tp201
Rp202
sg21
g6
(g10
S'\xd0\x9dVa1\xa9\xaf?'
p203
tp204
Rp205
sF0.07407344161616564
tp206
bag74
(g75
g76
Ntp207
Rp208
(g39
g6
(g10
S'_\x12\x08\tI\x9f\xb1>'
p209
tp210
Rp211
I01
NF1e-09
F0.0001
g6
(g10
S'\xef\xe3i6\xaaK\xbb>'
p212
tp213
Rp214
(dp215
g5
g6
(g10
S'a\xe9\xea:k\xb8\xca?'
p216
tp217
Rp218
sg51
g6
(g10
S"\x0e'D\x94\xcdT\xe3\xbf"
p219
tp220
Rp221
sg55
g6
(g10
S'\xd6t\xbc*\x01{\xc5\xbf'
p222
tp223
Rp224
sg21
g6
(g10
S'\xea \x03\x81\xf6\xe8\xde?'
p225
tp226
Rp227
sF3.2934160257431025e-06
tp228
basb.clmfit.parameter
Parameters
p0
(tRp1
(dp2
S'unique_symbols'
p3
(dp4
S'slope'
p5
cnumpy.core.multiarray
scalar
p6
(cnumpy
dtype
p7
(S'f8'
p8
I0
I1
tp9
Rp10
(I3
S'<'
p11
NNNI-1
I-1
I0
tp12
bS'&R-\xe4\x92\x04\x00@'
p13
tp14
Rp15
sS'infty'
p16
Finf
sS'None'
p17
NsS'False'
p18
I00
sS'D'
p19
g6
(g10
S'H\xe1z\x14\xaeOy@'
p20
tp21
Rp22
sS'NAN'
p23
Fnan
sS'nan'
p24
Fnan
sS'wxy'
p25
g6
(g10
S'\x14w\xca\x9e\x15!\xd8?'
p26
tp27
Rp28
sS'Inf'
p29
Finf
sS'little_endian'
p30
I01
sS'C_BR03125'
p31
g6
(g10
S'\x9a\x99\x99\x99\x99\x99\xf9?'
p32
tp33
Rp34
sS'wz'
p35
g6
(g10
S'wX\xb6\x1a\x94\xcb\x03@'
p36
tp37
Rp38
sS'C_BR06250'
p39
g6
(g10
S'\x9a\x99\x99\x99\x99\x99\t@'
p40
tp41
Rp42
sS'newaxis'
p43
NsS'e'
p44
F2.718281828459045
sS'inf'
p45
Finf
sS'pi'
p46
F3.141592653589793
sS'True'
p47
I01
sS'C_BR01562'
p48
g6
(g10
S'\x9a\x99\x99\x99\x99\x99\xe9?'
p49
tp50
Rp51
ssS'params'
p52
(lp53
ccopy_reg
_reconstructor
p54
(clmfit.parameter
Parameter
p55
c__builtin__
object
p56
Ntp57
Rp58
(g48
g6
(g10
S'\x9a\x99\x99\x99\x99\x99\xe9?'
p59
tp60
Rp61
I00
NNNI0
Ng61
tp62
bag54
(g55
g56
Ntp63
Rp64
(g31
g6
(g10
S'\x9a\x99\x99\x99\x99\x99\xf9?'
p65
tp66
Rp67
I00
NNNI0
Ng67
tp68
bag54
(g55
g56
Ntp69
Rp70
(g39
g6
(g10
S'\x9a\x99\x99\x99\x99\x99\t@'
p71
tp72
Rp73
I00
NNNI0
Ng73
tp74
bag54
(g55
g56
Ntp75
Rp76
(g19
g6
(g10
S'H\xe1z\x14\xaeOy@'
p77
tp78
Rp79
I00
NNNI0
Ng79
tp80
bag54
(g55
g56
Ntp81
Rp82
(g25
g6
(g10
S'\x14w\xca\x9e\x15!\xd8?'
p83
tp84
Rp85
I01
NF-inf
Finf
g6
(g10
S'a\xf19\xb6\x1fca?'
p86
tp87
Rp88
(dp89
g5
g6
(g10
S'cr\xbe\xd4D\x88\xe4?'
p90
tp91
Rp92
sg35
g6
(g10
S'\xc8\xed\xba\x8b\x17\xf7\xe6\xbf'
p93
tp94
Rp95
sF0.25
tp96
bag54
(g55
g56
Ntp97
Rp98
(g35
g6
(g10
S'wX\xb6\x1a\x94\xcb\x03@'
p99
tp100
Rp101
I01
NF-inf
Finf
g6
(g10
S';\xc0XR\xd5_\xbf?'
p102
tp103
Rp104
(dp105
g5
g6
(g10
S'\x1e\x0e\xed\xe9~\xcb\xef\xbf'
p106
tp107
Rp108
sg25
g6
(g10
S'\xe1\xed\xba\x8b\x17\xf7\xe6\xbf'
p109
tp110
Rp111
sF0.7
tp112
bag54
(g55
g56
Ntp113
Rp114
(g5
g6
(g10
S'&R-\xe4\x92\x04\x00@'
p115
tp116
Rp117
I01
NF-inf
Finf
g6
(g10
S'\x15\xc96\xf8\xd7@\xb6?'
p118
tp119
Rp120
(dp121
g25
g6
(g10
S'\x80r\xbe\xd4D\x88\xe4?'
p122
tp123
Rp124
sg35
g6
(g10
S'#\x0e\xed\xe9~\xcb\xef\xbf'
p125
tp126
Rp127
sF1.0
tp128
basb.clmfit.parameter
Parameters
p0
(tRp1
(dp2
S'unique_symbols'
p3
(dp4
S'slope'
p5
cnumpy.core.multiarray
scalar
p6
(cnumpy
dtype
p7
(S'f8'
p8
I0
I1
tp9
Rp10
(I3
S'<'
p11
NNNI-1
I-1
I0
tp12
bS'a,\x89\x00#\xe8\x00@'
p13
tp14
Rp15
sS'infty'
p16
Finf
sS'None'
p17
NsS'False'
p18
I00
sS'D'
p19
g6
(g10
S'H\xe1z\x14\xaeOy@'
p20
tp21
Rp22
sS'F'
p23
g6
(g10
S'4\x19^{<\x9e\xab?'
p24
tp25
Rp26
sS'NAN'
p27
Fnan
sS'nan'
p28
Fnan
sS'wxy'
p29
g6
(g10
S'\xf2>\x02\x9d;\xa4\xd8?'
p30
tp31
Rp32
sS'Inf'
p33
Finf
sS'little_endian'
p34
I01
sS'C_BR03125'
p35
g6
(g10
S'\x9a\x99\x99\x99\x99\x99\xf9?'
p36
tp37
Rp38
sS'wz'
p39
g6
(g10
S'\xe1\x8f\x04\xbb\xb8[\x02@'
p40
tp41
Rp42
sS'C_BR06250'
p43
g6
(g10
S'\x9a\x99\x99\x99\x99\x99\t@'
p44
tp45
Rp46
sS'newaxis'
p47
NsS'tf'
p48
g6
(g10
S'\x8f\xef\xd5\x85D#\xe2>'
p49
tp50
Rp51
sS'e'
p52
F2.718281828459045
sS'inf'
p53
Finf
sS'pi'
p54
F3.141592653589793
sS'True'
p55
I01
sS'C_BR01562'
p56
g6
(g10
S'\x9a\x99\x99\x99\x99\x99\xe9?'
p57
tp58
Rp59
ssS'params'
p60
(lp61
ccopy_reg
_reconstructor
p62
(clmfit.parameter
Parameter
p63
c__builtin__
object
p64
Ntp65
Rp66
(g56
g6
(g10
S'\x9a\x99\x99\x99\x99\x99\xe9?'
p67
tp68
Rp69
I00
NNNI0
Ng69
tp70
bag62
(g63
g64
Ntp71
Rp72
(g35
g6
(g10
S'\x9a\x99\x99\x99\x99\x99\xf9?'
p73
tp74
Rp75
I00
NNNI0
Ng75
tp76
bag62
(g63
g64
Ntp77
Rp78
(g43
g6
(g10
S'\x9a\x99\x99\x99\x99\x99\t@'
p79
tp80
Rp81
I00
NNNI0
Ng81
tp82
bag62
(g63
g64
Ntp83
Rp84
(g19
g6
(g10
S'H\xe1z\x14\xaeOy@'
p85
tp86
Rp87
I00
NNNI0
Ng87
tp88
bag62
(g63
g64
Ntp89
Rp90
(g29
g6
(g10
S'\xf2>\x02\x9d;\xa4\xd8?'
p91
tp92
Rp93
I01
NF-inf
Finf
g6
(g10
S'):\x8eO\xc5\x1ap?'
p94
tp95
Rp96
(dp97
g5
g6
(g10
S')<e^\xa7\xf0\xe5?'
p98
tp99
Rp100
sg48
g6
(g10
S'\x1f\x8a\xe3\xcbv\x88\xe4?'
p101
tp102
Rp103
sg39
g6
(g10
S'\x85\x1f\x97KR\xc4\xe8\xbf'
p104
tp105
Rp106
sg23
g6
(g10
S'\xba\x8fE\xa2\x93-\xdc?'
p107
tp108
Rp109
sF0.25
tp110
bag62
(g63
g64
Ntp111
Rp112
(g39
g6
(g10
S'\xe1\x8f\x04\xbb\xb8[\x02@'
p113
tp114
Rp115
I01
NF-inf
Finf
g6
(g10
S'\xc9\x92\x1c\xfex7\xbf?'
p116
tp117
Rp118
(dp119
g5
g6
(g10
S'\x81\x8c\xf2$\xc9\xaf\xef\xbf'
p120
tp121
Rp122
sg48
g6
(g10
S'g\xd1j=m\x15\xd7\xbf'
p123
tp124
Rp125
sg29
g6
(g10
S'\xa1\x1f\x97KR\xc4\xe8\xbf'
p126
tp127
Rp128
sg23
g6
(g10
S'\x97\x91t]\x02\x9a\xd3\xbf'
p129
tp130
Rp131
sF0.7
tp132
bag62
(g63
g64
Ntp133
Rp134
(g5
g6
(g10
S'a,\x89\x00#\xe8\x00@'
p135
tp136
Rp137
I01
NF-inf
Finf
g6
(g10
S'\x8ch9\x0fJ\x97\xb7?'
p138
tp139
Rp140
(dp141
g48
g6
(g10
S'E\x07\xdd\xb1\x07H\xd3?'
p142
tp143
Rp144
sg23
g6
(g10
S'C\x84\x1cd\xcc\xf3\xd0?'
p145
tp146
Rp147
sg29
g6
(g10
S'E<e^\xa7\xf0\xe5?'
p148
tp149
Rp150
sg39
g6
(g10
S'\x86\x8c\xf2$\xc9\xaf\xef\xbf'
p151
tp152
Rp153
sF1.0
tp154
bag62
(g63
g64
Ntp155
Rp156
(g23
g6
(g10
S'4\x19^{<\x9e\xab?'
p157
tp158
Rp159
I01
NF0.0
F0.5
g6
(g10
S'CA\x9d\xe5k\x91\x8a?'
p160
tp161
Rp162
(dp163
g5
g6
(g10
S'\x1a\x84\x1cd\xcc\xf3\xd0?'
p164
tp165
Rp166
sg48
g6
(g10
S'\x13\xe2\xe9f\xdf\xc7\xbf\xbf'
p167
tp168
Rp169
sg29
g6
(g10
S'\xb2\x8fE\xa2\x93-\xdc?'
p170
tp171
Rp172
sg39
g6
(g10
S'q\x91t]\x02\x9a\xd3\xbf'
p173
tp174
Rp175
sF0.05
tp176
bag62
(g63
g64
Ntp177
Rp178
(g48
g6
(g10
S'\x8f\xef\xd5\x85D#\xe2>'
p179
tp180
Rp181
I01
NF1e-09
F0.0001
g6
(g10
S'|\xd1\r).g\xd2>'
p182
tp183
Rp184
(dp185
g5
g6
(g10
S'\x17\x07\xdd\xb1\x07H\xd3?'
p186
tp187
Rp188
sg23
g6
(g10
S'\x1c\xe2\xe9f\xdf\xc7\xbf\xbf'
p189
tp190
Rp191
sg29
g6
(g10
S'\x19\x8a\xe3\xcbv\x88\xe4?'
p192
tp193
Rp194
sg39
g6
(g10
S'<\xd1j=m\x15\xd7\xbf'
p195
tp196
Rp197
sF1e-06
tp198
basb.clmfit.parameter
Parameters
p0
(tRp1
(dp2
S'unique_symbols'
p3
(dp4
S'slope'
p5
cnumpy.core.multiarray
scalar
p6
(cnumpy
dtype
p7
(S'f8'
p8
I0
I1
tp9
Rp10
(I3
S'<'
p11
NNNI-1
I-1
I0
tp12
bS'\xa4\xfb\x91\xddd\xf7\xfa?'
p13
tp14
Rp15
sS'NAN'
p16
Fnan
sS'lambdaem'
p17
g6
(g10
S'\xa0\x1a/\xdd$\x06\xe5?'
p18
tp19
Rp20
sS'w0'
p21
g6
(g10
S'y\x9a\xd0z\x83#\xd5?'
p22
tp23
Rp24
sS'lambdaex'
p25
g6
(g10
S'\xa8\xc6K7\x89A\xe4?'
p26
tp27
Rp28
sS'inf'
p29
Finf
sS'nan'
p30
Fnan
sS'C_BR01562'
p31
g6
(g10
S'\x9a\x99\x99\x99\x99\x99\xe9?'
p32
tp33
Rp34
sS'C_BR03125'
p35
g6
(g10
S'\x9a\x99\x99\x99\x99\x99\xf9?'
p36
tp37
Rp38
sS'pi'
p39
F3.141592653589793
sS'True'
p40
I01
sS'infty'
p41
Finf
sS'None'
p42
NsS'D'
p43
g6
(g10
S'H\xe1z\x14\xaeOy@'
p44
tp45
Rp46
sS'r0'
p47
g6
(g10
S'p\x0b\xc3\xf4\x16Q\xc2?'
p48
tp49
Rp50
sS'little_endian'
p51
I01
sS'a'
p52
g6
(g10
S'w\xbe\x9f\x1a/\xdd\xe4?'
p53
tp54
Rp55
sS'False'
p56
I00
sS'n'
p57
g6
(g10
S'H\xe1z\x14\xaeG\xf5?'
p58
tp59
Rp60
sS'C_BR06250'
p61
g6
(g10
S'\x9a\x99\x99\x99\x99\x99\t@'
p62
tp63
Rp64
sS'newaxis'
p65
NsS'Inf'
p66
Finf
sS'e'
p67
F2.718281828459045
ssS'params'
p68
(lp69
ccopy_reg
_reconstructor
p70
(clmfit.parameter
Parameter
p71
c__builtin__
object
p72
Ntp73
Rp74
(g31
g6
(g10
S'\x9a\x99\x99\x99\x99\x99\xe9?'
p75
tp76
Rp77
I00
NNNI0
Ng77
tp78
bag70
(g71
g72
Ntp79
Rp80
(g35
g6
(g10
S'\x9a\x99\x99\x99\x99\x99\xf9?'
p81
tp82
Rp83
I00
NNNI0
Ng83
tp84
bag70
(g71
g72
Ntp85
Rp86
(g61
g6
(g10
S'\x9a\x99\x99\x99\x99\x99\t@'
p87
tp88
Rp89
I00
NNNI0
Ng89
tp90
bag70
(g71
g72
Ntp91
Rp92
(g43
g6
(g10
S'H\xe1z\x14\xaeOy@'
p93
tp94
Rp95
I00
NNNI0
Ng95
tp96
bag70
(g71
g72
Ntp97
Rp98
(g21
g6
(g10
S'y\x9a\xd0z\x83#\xd5?'
p99
tp100
Rp101
I01
NF-inf
Finf
g6
(g10
S'EK\xc7\xb0\xec|s?'
p102
tp103
Rp104
(dp105
g5
g6
(g10
S'\xaa\x1d\xb5\xff]\x06\xeb?'
p106
tp107
Rp108
sg47
g6
(g10
S'\xfdY\xcfT2\xee\xec\xbf'
p109
tp110
Rp111
sF0.31628523301686345
tp112
bag70
(g71
g72
Ntp113
Rp114
(g52
g6
(g10
S'w\xbe\x9f\x1a/\xdd\xe4?'
p115
tp116
Rp117
I00
NNNI0
Ng117
tp118
bag70
(g71
g72
Ntp119
Rp120
(g47
g6
(g10
S'p\x0b\xc3\xf4\x16Q\xc2?'
p121
tp122
Rp123
I01
NF-inf
Finf
g6
(g10
S'W0\xd8\xc5\xdcaq?'
p124
tp125
Rp126
(dp127
g5
g6
(g10
S'\x01O\xb3bc\xaf\xef\xbf'
p128
tp129
Rp130
sg21
g6
(g10
S'\xf3Y\xcfT2\xee\xec\xbf'
p131
tp132
Rp133
sF0.15800667934395685
tp134
bag70
(g71
g72
Ntp135
Rp136
(g25
g6
(g10
S'\xa8\xc6K7\x89A\xe4?'
p137
tp138
Rp139
I00
NNNI0
Ng139
tp140
bag70
(g71
g72
Ntp141
Rp142
(g17
g6
(g10
S'\xa0\x1a/\xdd$\x06\xe5?'
p143
tp144
Rp145
I00
NNNI0
Ng145
tp146
bag70
(g71
g72
Ntp147
Rp148
(g57
g6
(g10
S'H\xe1z\x14\xaeG\xf5?'
p149
tp150
Rp151
I00
NNNI0
Ng151
tp152
bag70
(g71
g72
Ntp153
Rp154
(g5
g6
(g10
S'\xa4\xfb\x91\xddd\xf7\xfa?'
p155
tp156
Rp157
I01
NF-inf
Finf
g6
(g10
S'\xee\x1bgX\xea\xa6\xa7?'
p158
tp159
Rp160
(dp161
g47
g6
(g10
S'\xfaN\xb3bc\xaf\xef\xbf'
p162
tp163
Rp164
sg21
g6
(g10
S'\x93\x1d\xb5\xff]\x06\xeb?'
p165
tp166
Rp167
sF1.0
tp168
basb.clmfit.parameter
Parameters
p0
(tRp1
(dp2
S'unique_symbols'
p3
(dp4
S'slope'
p5
cnumpy.core.multiarray
scalar
p6
(cnumpy
dtype
p7
(S'f8'
p8
I0
I1
tp9
Rp10
(I3
S'<'
p11
NNNI-1
I-1
I0
tp12
bS'?\x87\xa0E<\x99\xfc?'
p13
tp14
Rp15
sS'NAN'
p16
Fnan
sS'lambdaem'
p17
g6
(g10
S'\xa0\x1a/\xdd$\x06\xe5?'
p18
tp19
Rp20
sS'w0'
p21
g6
(g10
S'\x92\xc0\xf8\xbf\x07N\xd4?'
p22
tp23
Rp24
sS'lambdaex'
p25
g6
(g10
S'\xa8\xc6K7\x89A\xe4?'
p26
tp27
Rp28
sS'inf'
p29
Finf
sS'nan'
p30
Fnan
sS'C_BR01562'
p31
g6
(g10
S'\x9a\x99\x99\x99\x99\x99\xe9?'
p32
tp33
Rp34
sS'C_BR03125'
p35
g6
(g10
S'\x9a\x99\x99\x99\x99\x99\xf9?'
p36
tp37
Rp38
sS'pi'
p39
F3.141592653589793
sS'True'
p40
I01
sS'infty'
p41
Finf
sS'None'
p42
NsS'D'
p43
g6
(g10
S'H\xe1z\x14\xaeOy@'
p44
tp45
Rp46
sS'r0'
p47
g6
(g10
S'i\x18\xde\xab}6\xc8?'
p48
tp49
Rp50
sS'little_endian'
p51
I01
sS'a'
p52
g6
(g10
S'w\xbe\x9f\x1a/\xdd\xe4?'
p53
tp54
Rp55
sS'False'
p56
I00
sS'n'
p57
g6
(g10
S'H\xe1z\x14\xaeG\xf5?'
p58
tp59
Rp60
sS'C_BR06250'
p61
g6
(g10
S'\x9a\x99\x99\x99\x99\x99\t@'
p62
tp63
Rp64
sS'newaxis'
p65
NsS'Inf'
p66
Finf
sS'e'
p67
F2.718281828459045
ssS'params'
p68
(lp69
ccopy_reg
_reconstructor
p70
(clmfit.parameter
Parameter
p71
c__builtin__
object
p72
Ntp73
Rp74
(g31
g6
(g10
S'\x9a\x99\x99\x99\x99\x99\xe9?'
p75
tp76
Rp77
I00
NNNI0
Ng77
tp78
bag70
(g71
g72
Ntp79
Rp80
(g35
g6
(g10
S'\x9a\x99\x99\x99\x99\x99\xf9?'
p81
tp82
Rp83
I00
NNNI0
Ng83
tp84
bag70
(g71
g72
Ntp85
Rp86
(g61
g6
(g10
S'\x9a\x99\x99\x99\x99\x99\t@'
p87
tp88
Rp89
I00
NNNI0
Ng89
tp90
bag70
(g71
g72
Ntp91
Rp92
(g43
g6
(g10
S'H\xe1z\x14\xaeOy@'
p93
tp94
Rp95
I00
NNNI0
Ng95
tp96
bag70
(g71
g72
Ntp97
Rp98
(g21
g6
(g10
S'\x92\xc0\xf8\xbf\x07N\xd4?'
p99
tp100
Rp101
I01
NF-inf
Finf
g6
(g10
S'\xef\xb2\x9e,C\x10u?'
p102
tp103
Rp104
(dp105
g5
g6
(g10
S'\xcc\xcb\x83\x8e\xb0\xb0\xea?'
p106
tp107
Rp108
sg47
g6
(g10
S'G|\xd8\x04\xc1\xa8\xec\xbf'
p109
tp110
Rp111
sF0.31628523301686345
tp112
bag70
(g71
g72
Ntp113
Rp114
(g52
g6
(g10
S'w\xbe\x9f\x1a/\xdd\xe4?'
p115
tp116
Rp117
I00
NNNI0
Ng117
tp118
bag70
(g71
g72
Ntp119
Rp120
(g47
g6
(g10
S'i\x18\xde\xab}6\xc8?'
p121
tp122
Rp123
I01
NF-inf
Finf
g6
(g10
S' \x0b\x8e\x82\xfa\xa7s?'
p124
tp125
Rp126
(dp127
g5
g6
(g10
S'\xe0\x95M[\xa5\xab\xef\xbf'
p128
tp129
Rp130
sg21
g6
(g10
S';|\xd8\x04\xc1\xa8\xec\xbf'
p131
tp132
Rp133
sF0.15800667934395685
tp134
bag70
(g71
g72
Ntp135
Rp136
(g25
g6
(g10
S'\xa8\xc6K7\x89A\xe4?'
p137
tp138
Rp139
I00
NNNI0
Ng139
tp140
bag70
(g71
g72
Ntp141
Rp142
(g17
g6
(g10
S'\xa0\x1a/\xdd$\x06\xe5?'
p143
tp144
Rp145
I00
NNNI0
Ng145
tp146
bag70
(g71
g72
Ntp147
Rp148
(g57
g6
(g10
S'H\xe1z\x14\xaeG\xf5?'
p149
tp150
Rp151
I00
NNNI0
Ng151
tp152
bag70
(g71
g72
Ntp153
Rp154
(g5
g6
(g10
S'?\x87\xa0E<\x99\xfc?'
p155
tp156
Rp157
I01
NF-inf
Finf
g6
(g10
S'\xa4\x1a\xf4]\xa5\xcd\xa6?'
p158
tp159
Rp160
(dp161
g47
g6
(g10
S'\xe0\x95M[\xa5\xab\xef\xbf'
p162
tp163
Rp164
sg21
g6
(g10
S'\xc8\xcb\x83\x8e\xb0\xb0\xea?'
p165
tp166
Rp167
sF1.0
tp168
basb.clmfit.parameter
Parameters
p0
(tRp1
(dp2
S'unique_symbols'
p3
(dp4
S'slope'
p5
cnumpy.core.multiarray
scalar
p6
(cnumpy
dtype
p7
(S'f8'
p8
I0
I1
tp9
Rp10
(I3
S'<'
p11
NNNI-1
I-1
I0
tp12
bS'?\x05\xa27C\xb3\xfb?'
p13
tp14
Rp15
sS'NAN'
p16
Fnan
sS'lambdaem'
p17
g6
(g10
S'\xa0\x1a/\xdd$\x06\xe5?'
p18
tp19
Rp20
sS'w0'
p21
g6
(g10
S'V\x19$\x81\xb8\xb3\xd5?'
p22
tp23
Rp24
sS'lambdaex'
p25
g6
(g10
S'\xa8\xc6K7\x89A\xe4?'
p26
tp27
Rp28
sS'inf'
p29
Finf
sS'nan'
p30
Fnan
sS'C_BR01562'
p31
g6
(g10
S'\x9a\x99\x99\x99\x99\x99\xe9?'
p32
tp33
Rp34
sS'C_BR03125'
p35
g6
(g10
S'\x9a\x99\x99\x99\x99\x99\xf9?'
p36
tp37
Rp38
sS'tf'
p39
g6
(g10
S'\xa4\xe5q[\xafj\xd0>'
p40
tp41
Rp42
sS'pi'
p43
F3.141592653589793
sS'True'
p44
I01
sS'infty'
p45
Finf
sS'None'
p46
NsS'D'
p47
g6
(g10
S'H\xe1z\x14\xaeOy@'
p48
tp49
Rp50
sS'F'
p51
g6
(g10
S'\xa0x\xb1\xbd\x06\x81\xa8?'
p52
tp53
Rp54
sS'r0'
p55
g6
(g10
S'%\xd52\xb6\xf3\xb2\xc1?'
p56
tp57
Rp58
sS'little_endian'
p59
I01
sS'a'
p60
g6
(g10
S'w\xbe\x9f\x1a/\xdd\xe4?'
p61
tp62
Rp63
sS'False'
p64
I00
sS'n'
p65
g6
(g10
S'H\xe1z\x14\xaeG\xf5?'
p66
tp67
Rp68
sS'C_BR06250'
p69
g6
(g10
S'\x9a\x99\x99\x99\x99\x99\t@'
p70
tp71
Rp72
sS'newaxis'
p73
NsS'Inf'
p74
Finf
sS'e'
p75
F2.718281828459045
ssS'params'
p76
(lp77
ccopy_reg
_reconstructor
p78
(clmfit.parameter
Parameter
p79
c__builtin__
object
p80
Ntp81
Rp82
(g31
g6
(g10
S'\x9a\x99\x99\x99\x99\x99\xe9?'
p83
tp84
Rp85
I00
NNNI0
Ng85
tp86
bag78
(g79
g80
Ntp87
Rp88
(g35
g6
(g10
S'\x9a\x99\x99\x99\x99\x99\xf9?'
p89
tp90
Rp91
I00
NNNI0
Ng91
tp92
bag78
(g79
g80
Ntp93
Rp94
(g69
g6
(g10
S'\x9a\x99\x99\x99\x99\x99\t@'
p95
tp96
Rp97
I00
NNNI0
Ng97
tp98
bag78
(g79
g80
Ntp99
Rp100
(g47
g6
(g10
S'H\xe1z\x14\xaeOy@'
p101
tp102
Rp103
I00
NNNI0
Ng103
tp104
bag78
(g79
g80
Ntp105
Rp106
(g21
g6
(g10
S'V\x19$\x81\xb8\xb3\xd5?'
p107
tp108
Rp109
I01
NF-inf
Finf
g6
(g10
S'\xcf\x1e\xb2\xf7\xf3\r{?'
p110
tp111
Rp112
(dp113
g5
g6
(g10
S'\xe9\x80\xdaU\x808\xeb?'
p114
tp115
Rp116
sg39
g6
(g10
S'\xd6q"wjN\xe0?'
p117
tp118
Rp119
sg55
g6
(g10
S'\x01\x90\xdd\x01+(\xed\xbf'
p120
tp121
Rp122
sg51
g6
(g10
S'\xde\x01\x91\x0e(5\xc8?'
p123
tp124
Rp125
sF0.31791731785368893
tp126
bag78
(g79
g80
Ntp127
Rp128
(g60
g6
(g10
S'w\xbe\x9f\x1a/\xdd\xe4?'
p129
tp130
Rp131
I00
NNNI0
Ng131
tp132
bag78
(g79
g80
Ntp133
Rp134
(g55
g6
(g10
S'%\xd52\xb6\xf3\xb2\xc1?'
p135
tp136
Rp137
I01
NF-inf
Finf
g6
(g10
S'\n\x0c;\xf3\xc3\xf8s?'
p138
tp139
Rp140
(dp141
g5
g6
(g10
S'\xcc\xfa\xf6\x9e\xb3\xaa\xef\xbf'
p142
tp143
Rp144
sg39
g6
(g10
S'"\xce\xc8\x9a\xeb\x16\xd6\xbf'
p145
tp146
Rp147
sg51
g6
(g10
S'v\x0f\xb2\x00U\xce\xc3\xbf'
p148
tp149
Rp150
sg21
g6
(g10
S'\xee\x8f\xdd\x01+(\xed\xbf'
p151
tp152
Rp153
sF0.1578243938066113
tp154
bag78
(g79
g80
Ntp155
Rp156
(g25
g6
(g10
S'\xa8\xc6K7\x89A\xe4?'
p157
tp158
Rp159
I00
NNNI0
Ng159
tp160
bag78
(g79
g80
Ntp161
Rp162
(g17
g6
(g10
S'\xa0\x1a/\xdd$\x06\xe5?'
p163
tp164
Rp165
I00
NNNI0
Ng165
tp166
bag78
(g79
g80
Ntp167
Rp168
(g65
g6
(g10
S'H\xe1z\x14\xaeG\xf5?'
p169
tp170
Rp171
I00
NNNI0
Ng171
tp172
bag78
(g79
g80
Ntp173
Rp174
(g5
g6
(g10
S'?\x05\xa27C\xb3\xfb?'
p175
tp176
Rp177
I01
NF-inf
Finf
g6
(g10
S'\xb4\x97p\xee\x8c\x01\xab?'
p178
tp179
Rp180
(dp181
g39
g6
(g10
S'j\xd6\xf0\xacsA\xd3?'
p182
tp183
Rp184
sg51
g6
(g10
S'.\xa0\xa8i\xd9\xd5\xc1?'
p185
tp186
Rp187
sg55
g6
(g10
S'\xc3\xfa\xf6\x9e\xb3\xaa\xef\xbf'
p188
tp189
Rp190
sg21
g6
(g10
S'\xce\x80\xdaU\x808\xeb?'
p191
tp192
Rp193
sF1.0
tp194
bag78
(g79
g80
Ntp195
Rp196
(g51
g6
(g10
S'\xa0x\xb1\xbd\x06\x81\xa8?'
p197
tp198
Rp199
I01
NF0.0
F0.5
g6
(g10
S'n@\x17\x847\x1d\x92?'
p200
tp201
Rp202
(dp203
g5
g6
(g10
S':\xa0\xa8i\xd9\xd5\xc1?'
p204
tp205
Rp206
sg39
g6
(g10
S'\xc2H\xc2\xb6"\x18\xdc\xbf'
p207
tp208
Rp209
sg55
g6
(g10
S'|\x0f\xb2\x00U\xce\xc3\xbf'
p210
tp211
Rp212
sg21
g6
(g10
S'\xd3\x01\x91\x0e(5\xc8?'
p213
tp214
Rp215
sF0.03853490619082328
tp216
bag78
(g79
g80
Ntp217
Rp218
(g39
g6
(g10
S'\xa4\xe5q[\xafj\xd0>'
p219
tp220
Rp221
I01
NF1e-09
F0.0001
g6
(g10
S's\xbb^\xf5\x9c\xe3\xc6>'
p222
tp223
Rp224
(dp225
g5
g6
(g10
S'\x82\xd6\xf0\xacsA\xd3?'
p226
tp227
Rp228
sg51
g6
(g10
S'\xbdH\xc2\xb6"\x18\xdc\xbf'
p229
tp230
Rp231
sg55
g6
(g10
S'5\xce\xc8\x9a\xeb\x16\xd6\xbf'
p232
tp233
Rp234
sg21
g6
(g10
S'\xd8q"wjN\xe0?'
p235
tp236
Rp237
sF1.5386378698268153e-06
tp238
basb.clmfit.parameter
Parameters
p0
(tRp1
(dp2
S'unique_symbols'
p3
(dp4
S'slope'
p5
cnumpy.core.multiarray
scalar
p6
(cnumpy
dtype
p7
(S'f8'
p8
I0
I1
tp9
Rp10
(I3
S'<'
p11
NNNI-1
I-1
I0
tp12
bS'EU\x96\xf4+.\xfd?'
p13
tp14
Rp15
sS'NAN'
p16
Fnan
sS'lambdaem'
p17
g6
(g10
S'\xa0\x1a/\xdd$\x06\xe5?'
p18
tp19
Rp20
sS'w0'
p21
g6
(g10
S'\xd98B%\x1a\xce\xd4?'
p22
tp23
Rp24
sS'lambdaex'
p25
g6
(g10
S'\xa8\xc6K7\x89A\xe4?'
p26
tp27
Rp28
sS'inf'
p29
Finf
sS'nan'
p30
Fnan
sS'C_BR01562'
p31
g6
(g10
S'\x9a\x99\x99\x99\x99\x99\xe9?'
p32
tp33
Rp34
sS'C_BR03125'
p35
g6
(g10
S'\x9a\x99\x99\x99\x99\x99\xf9?'
p36
tp37
Rp38
sS'tf'
p39
g6
(g10
S'u=Z\xdd}L\xc9>'
p40
tp41
Rp42
sS'pi'
p43
F3.141592653589793
sS'True'
p44
I01
sS'infty'
p45
Finf
sS'None'
p46
NsS'D'
p47
g6
(g10
S'H\xe1z\x14\xaeOy@'
p48
tp49
Rp50
sS'F'
p51
g6
(g10
S'\x8c\xe3\x9d\x98\x94\xb6\xa7?'
p52
tp53
Rp54
sS'r0'
p55
g6
(g10
S'l(\x92w\xf2\xa2\xc7?'
p56
tp57
Rp58
sS'little_endian'
p59
I01
sS'a'
p60
g6
(g10
S'w\xbe\x9f\x1a/\xdd\xe4?'
p61
tp62
Rp63
sS'False'
p64
I00
sS'n'
p65
g6
(g10
S'H\xe1z\x14\xaeG\xf5?'
p66
tp67
Rp68
sS'C_BR06250'
p69
g6
(g10
S'\x9a\x99\x99\x99\x99\x99\t@'
p70
tp71
Rp72
sS'newaxis'
p73
NsS'Inf'
p74
Finf
sS'e'
p75
F2.718281828459045
ssS'params'
p76
(lp77
ccopy_reg
_reconstructor
p78
(clmfit.parameter
Parameter
p79
c__builtin__
object
p80
Ntp81
Rp82
(g31
g6
(g10
S'\x9a\x99\x99\x99\x99\x99\xe9?'
p83
tp84
Rp85
I00
NNNI0
Ng85
tp86
bag78
(g79
g80
Ntp87
Rp88
(g35
g6
(g10
S'\x9a\x99\x99\x99\x99\x99\xf9?'
p89
tp90
Rp91
I00
NNNI0
Ng91
tp92
bag78
(g79
g80
Ntp93
Rp94
(g69
g6
(g10
S'\x9a\x99\x99\x99\x99\x99\t@'
p95
tp96
Rp97
I00
NNNI0
Ng97
tp98
bag78
(g79
g80
Ntp99
Rp100
(g47
g6
(g10
S'H\xe1z\x14\xaeOy@'
p101
tp102
Rp103
I00
NNNI0
Ng103
tp104
bag78
(g79
g80
Ntp105
Rp106
(g21
g6
(g10
S'\xd98B%\x1a\xce\xd4?'
p107
tp108
Rp109
I01
NF-inf
Finf
g6
(g10
S'j 0\x8c2D|?'
p110
tp111
Rp112
(dp113
g5
g6
(g10
S'\x99\xb9\xab\x19\xac\x06\xeb?'
p114
tp115
Rp116
sg39
g6
(g10
S'P[\xe0\xd3y\xa2\xde?'
p117
tp118
Rp119
sg55
g6
(g10
S'\xb1\n\x08\xf8\x04\xff\xec\xbf'
p120
tp121
Rp122
sg51
g6
(g10
S'\xcf\xb4\x0c\xdc\xc6*\xc1?'
p123
tp124
Rp125
sF0.31791731785368893
tp126
bag78
(g79
g80
Ntp127
Rp128
(g60
g6
(g10
S'w\xbe\x9f\x1a/\xdd\xe4?'
p129
tp130
Rp131
I00
NNNI0
Ng131
tp132
bag78
(g79
g80
Ntp133
Rp134
(g55
g6
(g10
S'l(\x92w\xf2\xa2\xc7?'
p135
tp136
Rp137
I01
NF-inf
Finf
g6
(g10
S'u\xdb\xb3r\xa0\xa4v?'
p138
tp139
Rp140
(dp141
g5
g6
(g10
S'j\x04?\x11:\xa8\xef\xbf'
p142
tp143
Rp144
sg39
g6
(g10
S'e\x05\x8a\xbd\x95l\xd4\xbf'
p145
tp146
Rp147
sg51
g6
(g10
S'k\xdf~SJh\xbc\xbf'
p148
tp149
Rp150
sg21
g6
(g10
S'\xbe\n\x08\xf8\x04\xff\xec\xbf'
p151
tp152
Rp153
sF0.1578243938066113
tp154
bag78
(g79
g80
Ntp155
Rp156
(g25
g6
(g10
S'\xa8\xc6K7\x89A\xe4?'
p157
tp158
Rp159
I00
NNNI0
Ng159
tp160
bag78
(g79
g80
Ntp161
Rp162
(g17
g6
(g10
S'\xa0\x1a/\xdd$\x06\xe5?'
p163
tp164
Rp165
I00
NNNI0
Ng165
tp166
bag78
(g79
g80
Ntp167
Rp168
(g65
g6
(g10
S'H\xe1z\x14\xaeG\xf5?'
p169
tp170
Rp171
I00
NNNI0
Ng171
tp172
bag78
(g79
g80
Ntp173
Rp174
(g5
g6
(g10
S'EU\x96\xf4+.\xfd?'
p175
tp176
Rp177
I01
NF-inf
Finf
g6
(g10
S'\xc6O\xe3\xff\x00\xc5\xa9?'
p178
tp179
Rp180
(dp181
g39
g6
(g10
S'\xc9\xd6\x0c\x96\x99\xd5\xd1?'
p182
tp183
Rp184
sg51
g6
(g10
S'\x06\xeb,(\x9c\xa7\xb9?'
p185
tp186
Rp187
sg55
g6
(g10
S'q\x04?\x11:\xa8\xef\xbf'
p188
tp189
Rp190
sg21
g6
(g10
S'\xae\xb9\xab\x19\xac\x06\xeb?'
p191
tp192
Rp193
sF1.0
tp194
bag78
(g79
g80
Ntp195
Rp196
(g51
g6
(g10
S'\x8c\xe3\x9d\x98\x94\xb6\xa7?'
p197
tp198
Rp199
I01
NF0.0
F0.5
g6
(g10
S'\xf2\xee\x0c\x93\\\x9e\x94?'
p200
tp201
Rp202
(dp203
g5
g6
(g10
S'\xd7\xeb,(\x9c\xa7\xb9?'
p204
tp205
Rp206
sg39
g6
(g10
S'\xf7\xbdu\x98\xa7O\xe0\xbf'
p207
tp208
Rp209
sg55
g6
(g10
S'?\xe0~SJh\xbc\xbf'
p210
tp211
Rp212
sg21
g6
(g10
S'2\xb5\x0c\xdc\xc6*\xc1?'
p213
tp214
Rp215
sF0.03853490619082328
tp216
bag78
(g79
g80
Ntp217
Rp218
(g39
g6
(g10
S'u=Z\xdd}L\xc9>'
p219
tp220
Rp221
I01
NF1e-09
F0.0001
g6
(g10
S'\x9a\x9f"\xe7@\xce\xc3>'
p222
tp223
Rp224
(dp225
g5
g6
(g10
S'[\xd6\x0c\x96\x99\xd5\xd1?'
p226
tp227
Rp228
sg51
g6
(g10
S'\x04\xbeu\x98\xa7O\xe0\xbf'
p229
tp230
Rp231
sg55
g6
(g10
S'\xfb\x04\x8a\xbd\x95l\xd4\xbf'
p232
tp233
Rp234
sg21
g6
(g10
S'\x00[\xe0\xd3y\xa2\xde?'
p235
tp236
Rp237
sF1.5386378698268153e-06
tp238
basb.